(dp0
S's8-e5-p4'
p1
ccollections
defaultdict
p2
(tRp3
S'dislike_count'
p4
I2
sS'view_count'
p5
I1728
sS'like_count'
p6
I3
sS'uploader'
p7
VEvery Shark Tank Product
p8
sS'title'
p9
VSandiLake Clothing Pitch (Shark Tank Season 8 Episode 5)
p10
ssS's8-e3-p4'
p11
g2
(tRp12
g4
I0
sg5
I2443
sg6
I9
sg7
VEvery Shark Tank Product
p13
sg9
VThe Cookie Kahuna Pitch (Shark Tank Season 8 Episode 3)
p14
ssS's8-e3-p3'
p15
g2
(tRp16
g4
I0
sg5
I1504
sg6
I2
sg7
VEvery Shark Tank Product
p17
sg9
VNight Runner 270 Pitch (Shark Tank Season 8 Episode 3)
p18
ssS's8-e3-p2'
p19
g2
(tRp20
g4
I0
sg5
I1554
sg6
I0
sg7
VEvery Shark Tank Product
p21
sg9
VTekDry - Save Your Water Damaged Phone Pitch (Shark Tank Season 8 Episode 3)
p22
ssS's8-e3-p1'
p23
g2
(tRp24
g4
I0
sg5
I1117
sg6
I2
sg7
VEvery Shark Tank Product
p25
sg9
VRaising Wild Swimwear Pitch (Shark Tank Season 8 Episode 3)
p26
ssS's8-e5-p2'
p27
g2
(tRp28
g4
I0
sg5
I1301
sg6
I4
sg7
VEvery Shark Tank Product
p29
sg9
VShark Tank Safe Grabs Pitch (Shark Tank Season 8 Episode 5)
p30
ssS's8-e1-p1'
p31
g2
(tRp32
g4
I0
sg5
I1263
sg6
I3
sg7
VEvery Shark Tank Product
p33
sg9
VIslide Flip Flops Pitch (Shark Tank Season 8 Episode 1)
p34
ssS's8-e4-p2'
p35
g2
(tRp36
g4
I0
sg5
I1607
sg6
I1
sg7
VEvery Shark Tank Product
p37
sg9
VToy Box Chocolate - Shark Tank Season 8 Episode 4
p38
ssS's8-e1-p3'
p39
g2
(tRp40
g4
I0
sg5
I698
sg6
I3
sg7
VEvery Shark Tank Product
p41
sg9
VSpoonful of Comfort Pitch (Shark Tank Season 8 Episode 1)
p42
ssS's8-e1-p2'
p43
g2
(tRp44
g4
I0
sg5
I3400
sg6
I12
sg7
VEvery Shark Tank Product
p45
sg9
VReThink Cyber Bullying App Pitch (Shark Tank Season 8 Episode 1)
p46
ssS's8-e1-p4'
p47
g2
(tRp48
g4
I3
sg5
I17076
sg6
I20
sg7
VEvery Shark Tank Product
p49
sg9
VThe Fizzics Draft Beer System Pitch (Shark Tank Season 8 Episode 1)
p50
ssS's8-e5-p1'
p51
g2
(tRp52
g4
I1
sg5
I3381
sg6
I8
sg7
VEvery Shark Tank Product
p53
sg9
VParkers Maple Syrup Pitch (Shark Tank Season 8 Episode 5)
p54
ssS's8-e5-p3'
p55
g2
(tRp56
g4
I0
sg5
I1724
sg6
I2
sg7
VEvery Shark Tank Product
p57
sg9
VShark Tank Silidog Pitch (Shark Tank Season 8 Episode 5)
p58
ssS's8-e2-p1'
p59
g2
(tRp60
g4
I0
sg5
I787
sg6
I2
sg7
VEvery Shark Tank Product
p61
sg9
VIce Age Meals Pitch (Shark Tank Season 8 Episode 2)
p62
ssS's8-e2-p2'
p63
g2
(tRp64
g4
I0
sg5
I205
sg6
I0
sg7
VEvery Shark Tank Product
p65
sg9
VGoodHangups Pitch (Shark Tank Season 8 Episode 2)
p66
ssS's8-e2-p3'
p67
g2
(tRp68
g4
I0
sg5
I2567
sg6
I9
sg7
VEvery Shark Tank Product
p69
sg9
VThe Lapel Project Pitch (Shark Tank Season 8 Episode 2)
p70
ssS's8-e2-p4'
p71
g2
(tRp72
g4
I1
sg5
I4739
sg6
I8
sg7
VEvery Shark Tank Product
p73
sg9
VTactiBite Fish Call Pitch (Shark Tank Season 8 Episode 2)
p74
ssS's8-e4-p3'
p75
g2
(tRp76
g4
I0
sg5
I1135
sg6
I0
sg7
VEvery Shark Tank Product
p77
sg9
VSolemates Pitch (Shark Tank Season 8 Episode 4)
p78
ssS's8-e4-p1'
p79
g2
(tRp80
g4
I1
sg5
I533
sg6
I5
sg7
VEvery Shark Tank Product
p81
sg9
VAngels and Tomboys Pitch (Shark Tank Season 8 Episode 4)
p82
ss.