(dp0
Vs3-e5-p1-s03e
p1
ccollections
defaultdict
p2
(tRp3
S'dislike_count'
p4
I5
sS'view_count'
p5
I5514
sS'like_count'
p6
I12
sS'uploader'
p7
VStephen Brown
p8
sS'title'
p9
VShark Tank S03E05
p10
ssVs3-e4-p1-s03e
p11
g2
(tRp12
g4
I1
sg5
I5908
sg6
I8
sg7
VStephen Brown
p13
sg9
VShark Tank S03E04
p14
ssVs3-e1-p1-s03e
p15
g2
(tRp16
g4
I4
sg5
I11752
sg6
I18
sg7
VStephen Brown
p17
sg9
VShark Tank S03E01
p18
ssVs3-e10-p1-s03e
p19
g2
(tRp20
g4
I0
sg5
I4545
sg6
I8
sg7
VStephen Brown
p21
sg9
VShark Tank S03E10
p22
ssVs3-e6-p1-s03e
p23
g2
(tRp24
g4
I0
sg5
I6489
sg6
I27
sg7
VStephen Brown
p25
sg9
VShark Tank S03E06
p26
ssVs3-e13-p1-s03e
p27
g2
(tRp28
g4
I2
sg5
I4829
sg6
I10
sg7
VStephen Brown
p29
sg9
VShark Tank S03E13
p30
ssVs3-e2-p1-s03e
p31
g2
(tRp32
g4
I0
sg5
I6455
sg6
I15
sg7
VStephen Brown
p33
sg9
VShark Tank S03E02
p34
ssVs3-e15-p1-s03e
p35
g2
(tRp36
g4
I3
sg5
I6427
sg6
I10
sg7
VStephen Brown
p37
sg9
VShark Tank S03E15
p38
ssVs3-e7-p1-s03e
p39
g2
(tRp40
g4
I5
sg5
I5809
sg6
I16
sg7
VStephen Brown
p41
sg9
VShark Tank S03E07
p42
ssVs3-e11-p1-s03e
p43
g2
(tRp44
g4
I1
sg5
I7469
sg6
I23
sg7
VStephen Brown
p45
sg9
VShark Tank S03E11
p46
ssVs3-e3-p1-s03e
p47
g2
(tRp48
g4
I2
sg5
I7320
sg6
I15
sg7
VStephen Brown
p49
sg9
VShark Tank S03E03
p50
ssVs3-e14-p1-s03e
p51
g2
(tRp52
g4
I2
sg5
I4708
sg6
I16
sg7
VStephen Brown
p53
sg9
VShark Tank S03E14
p54
ssVs3-e12-p1-s03e
p55
g2
(tRp56
g4
I1
sg5
I6046
sg6
I17
sg7
VStephen Brown
p57
sg9
VShark Tank S03E12
p58
ssVs3-e9-p1-s03e
p59
g2
(tRp60
g4
I0
sg5
I4477
sg6
I16
sg7
VStephen Brown
p61
sg9
VShark Tank S03E09
p62
ssVs3-e8-p1-s03e
p63
g2
(tRp64
g4
I3
sg5
I4873
sg6
I15
sg7
VStephen Brown
p65
sg9
VShark Tank S03E08
p66
ss.