(dp0
Vs8-e2-p4-tactibite-fish-call
p1
ccollections
defaultdict
p2
(tRp3
S'dislike_count'
p4
I1
sS'view_count'
p5
I4912
sS'like_count'
p6
I8
sS'uploader'
p7
VEvery Shark Tank Product
p8
sS'title'
p9
VTactiBite Fish Call Pitch (Shark Tank Season 8 Episode 2)
p10
ssVs8-e3-p4-the-cookie-kahuna
p11
g2
(tRp12
g4
I0
sg5
I2497
sg6
I9
sg7
VEvery Shark Tank Product
p13
sg9
VThe Cookie Kahuna Pitch (Shark Tank Season 8 Episode 3)
p14
ssVs8-e3-p1-raising-wild-swimwear
p15
g2
(tRp16
g4
I0
sg5
I1189
sg6
I2
sg7
VEvery Shark Tank Product
p17
sg9
VRaising Wild Swimwear Pitch (Shark Tank Season 8 Episode 3)
p18
ssVs8-e2-p2-goodhangups
p19
g2
(tRp20
g4
I0
sg5
I229
sg6
I1
sg7
VEvery Shark Tank Product
p21
sg9
VGoodHangups Pitch (Shark Tank Season 8 Episode 2)
p22
ssVs8-e5-p3-silidog
p23
g2
(tRp24
g4
I0
sg5
I1794
sg6
I2
sg7
VEvery Shark Tank Product
p25
sg9
VShark Tank Silidog Pitch (Shark Tank Season 8 Episode 5)
p26
ssVs8-e4-p2-toy-box-chocolate--season-8-episode
p27
g2
(tRp28
g4
I0
sg5
I1672
sg6
I1
sg7
VEvery Shark Tank Product
p29
sg9
VToy Box Chocolate - Shark Tank Season 8 Episode 4
p30
ssVs8-e1-p1-islide-flip-flops
p31
g2
(tRp32
g4
I0
sg5
I1307
sg6
I3
sg7
VEvery Shark Tank Product
p33
sg9
VIslide Flip Flops Pitch (Shark Tank Season 8 Episode 1)
p34
ssVs8-e4-p1-angels-and-tomboys
p35
g2
(tRp36
g4
I1
sg5
I557
sg6
I5
sg7
VEvery Shark Tank Product
p37
sg9
VAngels and Tomboys Pitch (Shark Tank Season 8 Episode 4)
p38
ssVs8-e2-p1-ice-age-meals
p39
g2
(tRp40
g4
I0
sg5
I825
sg6
I2
sg7
VEvery Shark Tank Product
p41
sg9
VIce Age Meals Pitch (Shark Tank Season 8 Episode 2)
p42
ssVs8-e3-p3-night-runner-270
p43
g2
(tRp44
g4
I0
sg5
I1527
sg6
I2
sg7
VEvery Shark Tank Product
p45
sg9
VNight Runner 270 Pitch (Shark Tank Season 8 Episode 3)
p46
ssVs8-e2-p3-the-lapel-project
p47
g2
(tRp48
g4
I0
sg5
I2719
sg6
I11
sg7
VEvery Shark Tank Product
p49
sg9
VThe Lapel Project Pitch (Shark Tank Season 8 Episode 2)
p50
ssVs8-e3-p2-tekdry--save-your-water-damaged-phone
p51
g2
(tRp52
g4
I0
sg5
I1621
sg6
I0
sg7
VEvery Shark Tank Product
p53
sg9
VTekDry - Save Your Water Damaged Phone Pitch (Shark Tank Season 8 Episode 3)
p54
ssVs8-e4-p3-solemates
p55
g2
(tRp56
g4
I0
sg5
I1169
sg6
I0
sg7
VEvery Shark Tank Product
p57
sg9
VSolemates Pitch (Shark Tank Season 8 Episode 4)
p58
ssVs8-e1-p4-the-fizzics-draft-beer-system
p59
g2
(tRp60
g4
I3
sg5
I17465
sg6
I22
sg7
VEvery Shark Tank Product
p61
sg9
VThe Fizzics Draft Beer System Pitch (Shark Tank Season 8 Episode 1)
p62
ssVs8-e5-p4-sandilake-clothing
p63
g2
(tRp64
g4
I2
sg5
I1834
sg6
I3
sg7
VEvery Shark Tank Product
p65
sg9
VSandiLake Clothing Pitch (Shark Tank Season 8 Episode 5)
p66
ssVs8-e5-p1-parkers-maple-syrup
p67
g2
(tRp68
g4
I1
sg5
I3443
sg6
I8
sg7
VEvery Shark Tank Product
p69
sg9
VParkers Maple Syrup Pitch (Shark Tank Season 8 Episode 5)
p70
ssVs8-e5-p2-safe-grabs
p71
g2
(tRp72
g4
I0
sg5
I1332
sg6
I5
sg7
VEvery Shark Tank Product
p73
sg9
VShark Tank Safe Grabs Pitch (Shark Tank Season 8 Episode 5)
p74
ssVs8-e1-p2-rethink-cyber-bullying-app
p75
g2
(tRp76
g4
I0
sg5
I3542
sg6
I12
sg7
VEvery Shark Tank Product
p77
sg9
VReThink Cyber Bullying App Pitch (Shark Tank Season 8 Episode 1)
p78
ssVs8-e1-p3-spoonful-of-comfort
p79
g2
(tRp80
g4
I0
sg5
I725
sg6
I3
sg7
VEvery Shark Tank Product
p81
sg9
VSpoonful of Comfort Pitch (Shark Tank Season 8 Episode 1)
p82
ss.