(dp0
VPaparazzi Proposals Pitch (Shark Tank Season 5 Episode 8)
p1
ccollections
defaultdict
p2
(tRp3
S'dislike_count'
p4
I0
sS'view_count'
p5
I546
sS'like_count'
p6
I0
sS'uploader'
p7
VEvery Shark Tank Product
p8
sS'title'
p9
g1
ssVLife Caps Pitch (Shark Tank Season 5 Episode 15)
p10
g2
(tRp11
g4
I0
sg5
I1615
sg6
I4
sg7
VEvery Shark Tank Product
p12
sg9
g10
ssVCrio Bru Pitch (Shark Tank Season 5 Episode 26)
p13
g2
(tRp14
g4
I0
sg5
I583
sg6
I2
sg7
VEvery Shark Tank Product
p15
sg9
g13
ssVFohawx Pitch (Shark Tank Season 5 Episode 11)
p16
g2
(tRp17
g4
I1
sg5
I395
sg6
I0
sg7
VEvery Shark Tank Product
p18
sg9
g16
ssVHold Your Haunches (Shark Tank Season 5 Episode 23)
p19
g2
(tRp20
g4
I0
sg5
I740
sg6
I0
sg7
VEvery Shark Tank Product
p21
sg9
g19
ssVMoberi Pitch (Shark Tank Season 5 Episode 17)
p22
g2
(tRp23
g4
I0
sg5
I360
sg6
I0
sg7
VEvery Shark Tank Product
p24
sg9
g22
ssVBounce Bootcamp Pitch (Shark Tank Season 5 Episode 13)
p25
g2
(tRp26
g4
I0
sg5
I574
sg6
I2
sg7
VEvery Shark Tank Product
p27
sg9
g25
ssVPet Paint Pitch (Shark Tank Season 5 Episode 8)
p28
g2
(tRp29
g4
I0
sg5
I1059
sg6
I2
sg7
VEvery Shark Tank Product
p30
sg9
g28
ssVQuickstop Fire Sprinkler Tools Pitch (Shark Tank Season 5 Episode 24)
p31
g2
(tRp32
g4
I0
sg5
I2165
sg6
I5
sg7
VEvery Shark Tank Product
p33
sg9
g31
ssVSweet Ballz Pitch (Shark Tank Season 5 Episode 1)
p34
g2
(tRp35
g4
I0
sg5
I863
sg6
I1
sg7
VEvery Shark Tank Product
p36
sg9
g34
ssVDoorBot Pitch (Shark Tank Season 5 Episode 9)
p37
g2
(tRp38
g4
I1
sg5
I38857
sg6
I24
sg7
VEvery Shark Tank Product
p39
sg9
g37
ssVSouthern Culture Artisan Foods Pitch (Shark Tank Season 5 Episode 17)
p40
g2
(tRp41
g4
I1
sg5
I566
sg6
I1
sg7
VEvery Shark Tank Product
p42
sg9
g40
ssVDDP Yoga Pitch (Shark Tank Season 5 Episode 17)
p43
g2
(tRp44
g4
I1
sg5
I13326
sg6
I59
sg7
VEvery Shark Tank Product
p45
sg9
g43
ssVRufflebutts And Ruggedbutts Pitch (Shark Tank Season 5 Episode 5)
p46
g2
(tRp47
g4
I0
sg5
I835
sg6
I0
sg7
VEvery Shark Tank Product
p48
sg9
g46
ssVOne Thirty Three Productions Pitch (Shark Tank Season 5 Episode 6)
p49
g2
(tRp50
g4
I0
sg5
I414
sg6
I0
sg7
VEvery Shark Tank Product
p51
sg9
g49
ssVScreenMend Pitch  (Shark Tank Season 5 Episode 4)
p52
g2
(tRp53
g4
I0
sg5
I2556
sg6
I2
sg7
VEvery Shark Tank Product
p54
sg9
g52
ssVFiberfix Pitch (Shark Tank Season 5 Episode 6)
p55
g2
(tRp56
g4
I0
sg5
I4204
sg6
I2
sg7
VEvery Shark Tank Product
p57
sg9
g55
ssVMan Medals Pitch (Shark Tank Season 5 Episode 2)
p58
g2
(tRp59
g4
I0
sg5
I354
sg6
I1
sg7
VEvery Shark Tank Product
p60
sg9
g58
ssVChocomize Pitch (Shark Tank Season 5 Episode 10)
p61
g2
(tRp62
g4
I0
sg5
I498
sg6
I0
sg7
VEvery Shark Tank Product
p63
sg9
g61
ssVIntelli-Stopper Technology Pitch (Shark Tank Season 5 Episode 25)
p64
g2
(tRp65
g4
I0
sg5
I394
sg6
I0
sg7
VEvery Shark Tank Product
p66
sg9
g64
ssVSchulzies Bread Pudding Pitch (Shark Tank Season 5 Episode 8)
p67
g2
(tRp68
g4
I0
sg5
I233
sg6
I0
sg7
VEvery Shark Tank Product
p69
sg9
g67
ssVBaker's Edge Pitch (Shark Tank Season 5 Episode 29)
p70
g2
(tRp71
g4
I0
sg5
I701
sg6
I1
sg7
VEvery Shark Tank Product
p72
sg9
g70
ssVYubo Pitch (Shark Tank Season 5 Episode 10)
p73
g2
(tRp74
g4
I0
sg5
I512
sg6
I0
sg7
VEvery Shark Tank Product
p75
sg9
g73
ssVLynnae's Gourmet Pickles Pitch (Shark Tank Season 5 Episode 1)
p76
g2
(tRp77
g4
I0
sg5
I892
sg6
I0
sg7
VEvery Shark Tank Product
p78
sg9
g76
ssVBambooee Pitch (Shark Tank Season 5 Episode 18)
p79
g2
(tRp80
g4
I1
sg5
I3599
sg6
I8
sg7
VEvery Shark Tank Product
p81
sg9
g79
ssVTree-T-Pee Pitch (Shark Tank Season 5 Episode 7)
p82
g2
(tRp83
g4
I4
sg5
I7839
sg6
I11
sg7
VEvery Shark Tank Product
p84
sg9
g82
ssVDe-Boned Baby Back Rib Steak Pitch (Shark Tank Season 5 Episode 11)
p85
g2
(tRp86
g4
I3
sg5
I12500
sg6
I12
sg7
VEvery Shark Tank Product
p87
sg9
g85
ssVBetter Life Pitch (Shark Tank Season 5 Episode 7)
p88
g2
(tRp89
g4
I0
sg5
I1935
sg6
I3
sg7
VEvery Shark Tank Product
p90
sg9
g88
ssVIlumi Pitch (Shark Tank Season 5 Episode 25)
p91
g2
(tRp92
g4
I0
sg5
I1448
sg6
I0
sg7
VEvery Shark Tank Product
p93
sg9
g91
ssVHangEase Pitch (Shark Tank Season 5 Episode 27)
p94
g2
(tRp95
g4
I1
sg5
I718
sg6
I1
sg7
VEvery Shark Tank Product
p96
sg9
g94
ssVKane and Couture Pitch (Shark Tank Season 5 Episode 2)
p97
g2
(tRp98
g4
I0
sg5
I527
sg6
I1
sg7
VEvery Shark Tank Product
p99
sg9
g97
ssVOmni Pitch (Shark Tank Season 5 Episode 11)
p100
g2
(tRp101
g4
I0
sg5
I4163
sg6
I10
sg7
VEvery Shark Tank Product
p102
sg9
g100
ssVInvisiplug Pitch (Shark Tank Season 5 Episode 14)
p103
g2
(tRp104
g4
I0
sg5
I268
sg6
I0
sg7
VEvery Shark Tank Product
p105
sg9
g103
ssVPostcard On The Run Pitch (Shark Tank Season 5 Episode 1)
p106
g2
(tRp107
g4
I0
sg5
I1380
sg6
I0
sg7
VEvery Shark Tank Product
p108
sg9
g106
ssVLite-Netics Pitch (Shark Tank Season 5 Episode 12)
p109
g2
(tRp110
g4
I0
sg5
I260
sg6
I0
sg7
VEvery Shark Tank Product
p111
sg9
g109
ssVThe Wall Doctor Rx (Shark Tank Season 5 Episode 13)
p112
g2
(tRp113
g4
I1
sg5
I4092
sg6
I5
sg7
VEvery Shark Tank Product
p114
sg9
g112
ssVFreshly Picked Pitch (Shark Tank Season 5 Episode 15)
p115
g2
(tRp116
g4
I0
sg5
I3164
sg6
I1
sg7
VEvery Shark Tank Product
p117
sg9
g115
ssVHenry's Humdingers Pitch (Shark Tank Season 5 Episode 20)
p118
g2
(tRp119
g4
I2
sg5
I821
sg6
I2
sg7
VEvery Shark Tank Product
p120
sg9
g118
ssVHappy Feet Pitch (Shark Tank Season 5 Episode 23)
p121
g2
(tRp122
g4
I0
sg5
I1168
sg6
I3
sg7
VEvery Shark Tank Product
p123
sg9
g121
ssVCinnaholic Pitch (Shark Tank Season 5 Episode 28)
p124
g2
(tRp125
g4
I1
sg5
I2603
sg6
I4
sg7
VEvery Shark Tank Product
p126
sg9
g124
ssVMorningHead Pitch (Shark Tank Season 5 Episode 21)
p127
g2
(tRp128
g4
I0
sg5
I1196
sg6
I3
sg7
VEvery Shark Tank Product
p129
sg9
g127
ssVThe Paint Brush Cover Pitch (Shark Tank Season 5 Episode 22)
p130
g2
(tRp131
g4
I0
sg5
I777
sg6
I1
sg7
VEvery Shark Tank Product
p132
sg9
g130
ssVEyebloc Pitch (Shark Tank Season 5 Episode 13)
p133
g2
(tRp134
g4
I0
sg5
I321
sg6
I0
sg7
VEvery Shark Tank Product
p135
sg9
g133
ssVMagic Moments Pitch (Shark Tank Season 5 Episode 9)
p136
g2
(tRp137
g4
I0
sg5
I383
sg6
I1
sg7
VEvery Shark Tank Product
p138
sg9
g136
ssVTotal Merchant Resources Pitch (Shark Tank Season 5 Episode 6)
p139
g2
(tRp140
g4
I0
sg5
I1727
sg6
I1
sg7
VEvery Shark Tank Product
p141
sg9
g139
ssVSlawsa Pitch (Shark Tank Season 5 Episode 9)
p142
g2
(tRp143
g4
I0
sg5
I326
sg6
I0
sg7
VEvery Shark Tank Product
p144
sg9
g142
ssVSpirithood Pitch (Shark Tank Season 5 Episode 11)
p145
g2
(tRp146
g4
I0
sg5
I1585
sg6
I3
sg7
VEvery Shark Tank Product
p147
sg9
g145
ssVChapul Pitch (Shark Tank Season 5 Episode 21)
p148
g2
(tRp149
g4
I0
sg5
I362
sg6
I0
sg7
VEvery Shark Tank Product
p150
sg9
g148
ssVMonkey Mat Pitch (Shark Tank Season 5 Episode 22)
p151
g2
(tRp152
g4
I0
sg5
I600
sg6
I1
sg7
VEvery Shark Tank Product
p153
sg9
g151
ssVTie-Not Pitch (Shark Tank Season 5 Episode 29)
p154
g2
(tRp155
g4
I0
sg5
I406
sg6
I0
sg7
VEvery Shark Tank Product
p156
sg9
g154
ssVAlaska Glacial Mud Company Pitch (Shark Tank Season 5 Episode 14)
p157
g2
(tRp158
g4
I0
sg5
I133
sg6
I0
sg7
VEvery Shark Tank Product
p159
sg9
g157
ssVElephant Chat Pitch (Shark Tank Season 5 Episode 6)
p160
g2
(tRp161
g4
I0
sg5
I2147
sg6
I1
sg7
VEvery Shark Tank Product
p162
sg9
g160
ssVFairytale Wishes Pitch (Shark Tank Season 5 Episode 3)
p163
g2
(tRp164
g4
I0
sg5
I249
sg6
I0
sg7
VEvery Shark Tank Product
p165
sg9
g163
ssVBalloon Distractions Pitch (Shark Tank Season 5 Episode 14)
p166
g2
(tRp167
g4
I1
sg5
I473
sg6
I1
sg7
VEvery Shark Tank Product
p168
sg9
g166
ssVOru Kayak Pitch (Shark Tank Season 5 Episode 28)
p169
g2
(tRp170
g4
I0
sg5
I1873
sg6
I4
sg7
VEvery Shark Tank Product
p171
sg9
g169
ssVGroovebook Pitch (Shark Tank Season 5 Episode 13)
p172
g2
(tRp173
g4
I0
sg5
I13485
sg6
I18
sg7
VEvery Shark Tank Product
p174
sg9
g172
ssVTipsy Elves Pitch (Shark Tank Season 5 Episode 12)
p175
g2
(tRp176
g4
I6
sg5
I8994
sg6
I6
sg7
VEvery Shark Tank Product
p177
sg9
g175
ssV180Cup Pitch (Shark Tank Season 5 Episode 7)
p178
g2
(tRp179
g4
I1
sg5
I2290
sg6
I3
sg7
VEvery Shark Tank Product
p180
sg9
g178
ssVPowerPot Pitch (Shark Tank Season 5 Episode 24)
p181
g2
(tRp182
g4
I0
sg5
I189
sg6
I0
sg7
VEvery Shark Tank Product
p183
sg9
g181
ssVVeggie Mama Pitch (Shark Tank Season 5 Episode 5)
p184
g2
(tRp185
g4
I0
sg5
I784
sg6
I1
sg7
VEvery Shark Tank Product
p186
sg9
g184
ssVFort Magic Pitch (Shark Tank Season 5 Episode 25)
p187
g2
(tRp188
g4
I0
sg5
I711
sg6
I0
sg7
VEvery Shark Tank Product
p189
sg9
g187
ssVGrace and Lace Pitch (Shark Tank Season 5 Episode 10)
p190
g2
(tRp191
g4
I2
sg5
I3831
sg6
I4
sg7
VEvery Shark Tank Product
p192
sg9
g190
ssVSurprise Ride Pitch (Shark Tank Season 5 Episode 9)
p193
g2
(tRp194
g4
I0
sg5
I91
sg6
I0
sg7
VEvery Shark Tank Product
p195
sg9
g193
ssVScan App Pitch (Shark Tank Season 5 Episode 4)
p196
g2
(tRp197
g4
I0
sg5
I15153
sg6
I21
sg7
VEvery Shark Tank Product
p198
sg9
g196
ssVBellyBuds Pitch (Shark Tank Season 5 Episode 8)
p199
g2
(tRp200
g4
I0
sg5
I344
sg6
I1
sg7
VEvery Shark Tank Product
p201
sg9
g199
ssVCerebral Success (Shark Tank Season 5 Episode 26)
p202
g2
(tRp203
g4
I0
sg5
I484
sg6
I0
sg7
VEvery Shark Tank Product
p204
sg9
g202
ssVRent A Goat Pitch (Shark Tank Season 5 Episode 5)
p205
g2
(tRp206
g4
I0
sg5
I1260
sg6
I2
sg7
VEvery Shark Tank Product
p207
sg9
g205
ssVPursecase Pitch (Shark Tank Season 5 Episode 10)
p208
g2
(tRp209
g4
I0
sg5
I784
sg6
I1
sg7
VEvery Shark Tank Product
p210
sg9
g208
ssVRapid Ramen Cooker Pitch (Shark Tank Season 5 Episode 3)
p211
g2
(tRp212
g4
I0
sg5
I2134
sg6
I1
sg7
VEvery Shark Tank Product
p213
sg9
g211
ssVLockerBones Pitch (Shark Tank Season 5 Episode 14)
p214
g2
(tRp215
g4
I0
sg5
I149
sg6
I0
sg7
VEvery Shark Tank Product
p216
sg9
g214
ssVBare Ease Pitch (Shark Tank Season 5 Episode 5)
p217
g2
(tRp218
g4
I0
sg5
I499
sg6
I1
sg7
VEvery Shark Tank Product
p219
sg9
g217
ssVBuzzy Pitch (Shark Tank Season 5 Episode 18)
p220
g2
(tRp221
g4
I0
sg5
I729
sg6
I2
sg7
VEvery Shark Tank Product
p222
sg9
g220
ssVHamboards Pitch (Shark Tank Season 5 Episode 4)
p223
g2
(tRp224
g4
I0
sg5
I756
sg6
I2
sg7
VEvery Shark Tank Product
p225
sg9
g223
ssVKodiak Cakes Pitch (Shark Tank Season 5 Episode 22)
p226
g2
(tRp227
g4
I4
sg5
I7365
sg6
I15
sg7
VEvery Shark Tank Product
p228
sg9
g226
ssVBreathOmeter Pitch (Shark Tank Season 5 Episode 2)
p229
g2
(tRp230
g4
I2
sg5
I23101
sg6
I32
sg7
VEvery Shark Tank Product
p231
sg9
g229
ssVZipIt Pitch (Shark Tank Season 5 Episode 18)
p232
g2
(tRp233
g4
I0
sg5
I536
sg6
I2
sg7
VEvery Shark Tank Product
p234
sg9
g232
ssVHanukkah Tree Topper Pitch (Shark Tank Season 5 Episode 12)
p235
g2
(tRp236
g4
I1
sg5
I481
sg6
I0
sg7
VEvery Shark Tank Product
p237
sg9
g235
ssVThe Freeloader Pitch (Shark Tank Season 5 Episode 3)
p238
g2
(tRp239
g4
I0
sg5
I407
sg6
I0
sg7
VEvery Shark Tank Product
p240
sg9
g238
ssVSunday Night Slow Jams Pitch (Shark Tank Season 5 Episode 4)
p241
g2
(tRp242
g4
I0
sg5
I318
sg6
I2
sg7
VEvery Shark Tank Product
p243
sg9
g241
ssVSwimzip Pitch (Shark Tank Season 5 Episode 15)
p244
g2
(tRp245
g4
I0
sg5
I392
sg6
I1
sg7
VEvery Shark Tank Product
p246
sg9
g244
ss.