(dp0
Vs1-e9-p1-s01e
p1
ccollections
defaultdict
p2
(tRp3
S'dislike_count'
p4
I0
sS'view_count'
p5
I3846
sS'like_count'
p6
I13
sS'uploader'
p7
VStephen Brown
p8
sS'title'
p9
VShark Tank S01E09
p10
ssVs1-e15-p1-s01e
p11
g2
(tRp12
g4
I2
sg5
I3455
sg6
I6
sg7
VStephen Brown
p13
sg9
VShark Tank S01E15
p14
ssVs1-e5-p1-s01e
p15
g2
(tRp16
g4
I3
sg5
I4624
sg6
I9
sg7
VStephen Brown
p17
sg9
VShark Tank S01E05
p18
ssVs1-e12-p1-s01e
p19
g2
(tRp20
g4
I1
sg5
I4287
sg6
I6
sg7
VStephen Brown
p21
sg9
VShark Tank S01E12
p22
ssVs1-e7-p1-s01e
p23
g2
(tRp24
g4
I4
sg5
I4520
sg6
I10
sg7
VStephen Brown
p25
sg9
VShark Tank S01E07
p26
ssVs1-e10-p1-s01e
p27
g2
(tRp28
g4
I6
sg5
I8245
sg6
I16
sg7
VStephen Brown
p29
sg9
VShark Tank S01E10
p30
ssVs1-e6-p1-s01e
p31
g2
(tRp32
g4
I2
sg5
I4930
sg6
I12
sg7
VStephen Brown
p33
sg9
VShark Tank S01E06
p34
ssVs1-e8-p1-s01e
p35
g2
(tRp36
g4
I2
sg5
I4701
sg6
I12
sg7
VStephen Brown
p37
sg9
VShark Tank S01E08
p38
ssVs1-e11-p1-s01e
p39
g2
(tRp40
g4
I1
sg5
I5155
sg6
I12
sg7
VStephen Brown
p41
sg9
VShark Tank S01E11
p42
ssVs1-e14-p1-s01e
p43
g2
(tRp44
g4
I2
sg5
I3358
sg6
I8
sg7
VStephen Brown
p45
sg9
VShark Tank S01E14
p46
ssVs1-e13-p1-s01e
p47
g2
(tRp48
g4
I1
sg5
I3709
sg6
I11
sg7
VStephen Brown
p49
sg9
VShark Tank S01E13
p50
ss.