(dp0
VRaising Wild Swimwear Pitch (Shark Tank Season 8 Episode 3)
p1
ccollections
defaultdict
p2
(tRp3
S'dislike_count'
p4
I0
sS'view_count'
p5
I1117
sS'like_count'
p6
I2
sS'uploader'
p7
VEvery Shark Tank Product
p8
sS'title'
p9
g1
ssVThe Fizzics Draft Beer System Pitch (Shark Tank Season 8 Episode 1)
p10
g2
(tRp11
g4
I3
sg5
I17076
sg6
I20
sg7
VEvery Shark Tank Product
p12
sg9
g10
ssVParkers Maple Syrup Pitch (Shark Tank Season 8 Episode 5)
p13
g2
(tRp14
g4
I1
sg5
I3381
sg6
I8
sg7
VEvery Shark Tank Product
p15
sg9
g13
ssVShark Tank Silidog Pitch (Shark Tank Season 8 Episode 5)
p16
g2
(tRp17
g4
I0
sg5
I1724
sg6
I2
sg7
VEvery Shark Tank Product
p18
sg9
g16
ssVTactiBite Fish Call Pitch (Shark Tank Season 8 Episode 2)
p19
g2
(tRp20
g4
I1
sg5
I4739
sg6
I8
sg7
VEvery Shark Tank Product
p21
sg9
g19
ssVSolemates Pitch (Shark Tank Season 8 Episode 4)
p22
g2
(tRp23
g4
I0
sg5
I1135
sg6
I0
sg7
VEvery Shark Tank Product
p24
sg9
g22
ssVAngels and Tomboys Pitch (Shark Tank Season 8 Episode 4)
p25
g2
(tRp26
g4
I1
sg5
I533
sg6
I5
sg7
VEvery Shark Tank Product
p27
sg9
g25
ssVIce Age Meals Pitch (Shark Tank Season 8 Episode 2)
p28
g2
(tRp29
g4
I0
sg5
I787
sg6
I2
sg7
VEvery Shark Tank Product
p30
sg9
g28
ssVIslide Flip Flops Pitch (Shark Tank Season 8 Episode 1)
p31
g2
(tRp32
g4
I0
sg5
I1263
sg6
I3
sg7
VEvery Shark Tank Product
p33
sg9
g31
ssVReThink Cyber Bullying App Pitch (Shark Tank Season 8 Episode 1)
p34
g2
(tRp35
g4
I0
sg5
I3400
sg6
I12
sg7
VEvery Shark Tank Product
p36
sg9
g34
ssVSandiLake Clothing Pitch (Shark Tank Season 8 Episode 5)
p37
g2
(tRp38
g4
I2
sg5
I1728
sg6
I3
sg7
VEvery Shark Tank Product
p39
sg9
g37
ssVNight Runner 270 Pitch (Shark Tank Season 8 Episode 3)
p40
g2
(tRp41
g4
I0
sg5
I1504
sg6
I2
sg7
VEvery Shark Tank Product
p42
sg9
g40
ssVShark Tank Safe Grabs Pitch (Shark Tank Season 8 Episode 5)
p43
g2
(tRp44
g4
I0
sg5
I1301
sg6
I4
sg7
VEvery Shark Tank Product
p45
sg9
g43
ssVThe Lapel Project Pitch (Shark Tank Season 8 Episode 2)
p46
g2
(tRp47
g4
I0
sg5
I2567
sg6
I9
sg7
VEvery Shark Tank Product
p48
sg9
g46
ssVGoodHangups Pitch (Shark Tank Season 8 Episode 2)
p49
g2
(tRp50
g4
I0
sg5
I205
sg6
I0
sg7
VEvery Shark Tank Product
p51
sg9
g49
ssVThe Cookie Kahuna Pitch (Shark Tank Season 8 Episode 3)
p52
g2
(tRp53
g4
I0
sg5
I2443
sg6
I9
sg7
VEvery Shark Tank Product
p54
sg9
g52
ssVTekDry - Save Your Water Damaged Phone Pitch (Shark Tank Season 8 Episode 3)
p55
g2
(tRp56
g4
I0
sg5
I1554
sg6
I0
sg7
VEvery Shark Tank Product
p57
sg9
g55
ssVToy Box Chocolate - Shark Tank Season 8 Episode 4
p58
g2
(tRp59
g4
I0
sg5
I1607
sg6
I1
sg7
VEvery Shark Tank Product
p60
sg9
g58
ssVSpoonful of Comfort Pitch (Shark Tank Season 8 Episode 1)
p61
g2
(tRp62
g4
I0
sg5
I687
sg6
I3
sg7
VEvery Shark Tank Product
p63
sg9
g61
ss.