(dp0
Vs7-e6-p1-season-7-episode
p1
ccollections
defaultdict
p2
(tRp3
S'dislike_count'
p4
I3
sS'view_count'
p5
I4872
sS'like_count'
p6
I8
sS'uploader'
p7
VKeesha Adelle
p8
sS'title'
p9
VShark Tank Season 7 Episode 6
p10
ssVs7-e16-p1-season-7-episode-
p11
g2
(tRp12
g4
I4
sg5
I6039
sg6
I5
sg7
VKeesha Adelle
p13
sg9
VShark Tank Season 7 Episode 16
p14
ssVs7-e12-p1-season-7-episode-
p15
g2
(tRp16
g4
I3
sg5
I6657
sg6
I9
sg7
VKeesha Adelle
p17
sg9
VShark Tank Season 7 Episode 12
p18
ssVs7-e3-p1-season-7-episode
p19
g2
(tRp20
g4
I5
sg5
I8330
sg6
I11
sg7
VKeesha Adelle
p21
sg9
VShark Tank Season 7 Episode 3
p22
ssVs7-e9-p1-season-7-episode
p23
g2
(tRp24
g4
I6
sg5
I7626
sg6
I10
sg7
VKeesha Adelle
p25
sg9
VShark Tank Season 7 Episode 9
p26
ssVs7-e4-p1-season-7-episode
p27
g2
(tRp28
g4
I3
sg5
I5357
sg6
I6
sg7
VKeesha Adelle
p29
sg9
VShark Tank Season 7 Episode 4
p30
ssVs7-e7-p1-season-7-episode
p31
g2
(tRp32
g4
I16
sg5
I22921
sg6
I29
sg7
VKeesha Adelle
p33
sg9
VShark Tank Season 7 Episode 7
p34
ssVs7-e18-p1-season-7-episode-
p35
g2
(tRp36
g4
I12
sg5
I14075
sg6
I15
sg7
VKeesha Adelle
p37
sg9
VShark Tank Season 7 Episode 18
p38
ssVs7-e20-p1-season-7-episode-
p39
g2
(tRp40
g4
I4
sg5
I7837
sg6
I12
sg7
VKeesha Adelle
p41
sg9
VShark Tank Season 7 Episode 20
p42
ssVs7-e17-p1-season-7-episode-
p43
g2
(tRp44
g4
I1
sg5
I6872
sg6
I10
sg7
VKeesha Adelle
p45
sg9
VShark Tank Season 7 Episode 17
p46
ssVs7-e19-p1-season-7-episode-
p47
g2
(tRp48
g4
I0
sg5
I8923
sg6
I15
sg7
VKeesha Adelle
p49
sg9
VShark Tank Season 7 Episode 19
p50
ssVs7-e15-p1-season-7-episode-
p51
g2
(tRp52
g4
I3
sg5
I5162
sg6
I5
sg7
VKeesha Adelle
p53
sg9
VShark Tank Season 7 Episode 15
p54
ssVs7-e14-p1-season-7-episode-
p55
g2
(tRp56
g4
I2
sg5
I5934
sg6
I5
sg7
VKeesha Adelle
p57
sg9
VShark Tank Season 7 Episode 14
p58
ssVs7-e21-p1-season-7-episode-
p59
g2
(tRp60
g4
I23
sg5
I24161
sg6
I19
sg7
VKeesha Adelle
p61
sg9
VShark Tank Season 7 Episode 21
p62
ssVs7-e11-p1-season-7-episode-
p63
g2
(tRp64
g4
I2
sg5
I7629
sg6
I16
sg7
VKeesha Adelle
p65
sg9
VShark Tank Season 7 Episode 11
p66
ssVs7-e8-p1-season-7-episode
p67
g2
(tRp68
g4
I1
sg5
I6226
sg6
I9
sg7
VKeesha Adelle
p69
sg9
VShark Tank Season 7 Episode 8
p70
ssVs7-e13-p1-season-7-episode-
p71
g2
(tRp72
g4
I3
sg5
I6983
sg6
I10
sg7
VKeesha Adelle
p73
sg9
VShark Tank Season 7 Episode 13
p74
ssVs7-e10-p1-season-7-episode-
p75
g2
(tRp76
g4
I6
sg5
I12887
sg6
I15
sg7
VKeesha Adelle
p77
sg9
VShark Tank Season 7 Episode 10
p78
ss.