(dp0
Vs5-e20-p1-henrys-humdingers
p1
ccollections
defaultdict
p2
(tRp3
S'dislike_count'
p4
I2
sS'view_count'
p5
I845
sS'like_count'
p6
I2
sS'uploader'
p7
VEvery Shark Tank Product
p8
sS'title'
p9
VHenry's Humdingers Pitch (Shark Tank Season 5 Episode 20)
p10
ssVs5-e12-p4-tipsy-elves
p11
g2
(tRp12
g4
I7
sg5
I9299
sg6
I7
sg7
VEvery Shark Tank Product
p13
sg9
VTipsy Elves Pitch (Shark Tank Season 5 Episode 12)
p14
ssVs5-e13-p1-bounce-bootcamp
p15
g2
(tRp16
g4
I0
sg5
I595
sg6
I2
sg7
VEvery Shark Tank Product
p17
sg9
VBounce Bootcamp Pitch (Shark Tank Season 5 Episode 13)
p18
ssVs5-e5-p4-veggie-mama
p19
g2
(tRp20
g4
I0
sg5
I827
sg6
I1
sg7
VEvery Shark Tank Product
p21
sg9
VVeggie Mama Pitch (Shark Tank Season 5 Episode 5)
p22
ssVs5-e26-p1-crio-bru
p23
g2
(tRp24
g4
I0
sg5
I637
sg6
I2
sg7
VEvery Shark Tank Product
p25
sg9
VCrio Bru Pitch (Shark Tank Season 5 Episode 26)
p26
ssVs5-e4-p3-scan-app
p27
g2
(tRp28
g4
I0
sg5
I15628
sg6
I22
sg7
VEvery Shark Tank Product
p29
sg9
VScan App Pitch (Shark Tank Season 5 Episode 4)
p30
ssVs5-e26-p2-cerebral-success
p31
g2
(tRp32
g4
I0
sg5
I509
sg6
I0
sg7
VEvery Shark Tank Product
p33
sg9
VCerebral Success (Shark Tank Season 5 Episode 26)
p34
ssVs5-e10-p2-pursecase
p35
g2
(tRp36
g4
I0
sg5
I838
sg6
I1
sg7
VEvery Shark Tank Product
p37
sg9
VPursecase Pitch (Shark Tank Season 5 Episode 10)
p38
ssVs5-e3-p1-fairytale-wishes
p39
g2
(tRp40
g4
I0
sg5
I263
sg6
I0
sg7
VEvery Shark Tank Product
p41
sg9
VFairytale Wishes Pitch (Shark Tank Season 5 Episode 3)
p42
ssVs5-e6-p1-fiberfix
p43
g2
(tRp44
g4
I0
sg5
I4312
sg6
I2
sg7
VEvery Shark Tank Product
p45
sg9
VFiberfix Pitch (Shark Tank Season 5 Episode 6)
p46
ssVs5-e4-p4-screenmend-
p47
g2
(tRp48
g4
I0
sg5
I2742
sg6
I2
sg7
VEvery Shark Tank Product
p49
sg9
VScreenMend Pitch  (Shark Tank Season 5 Episode 4)
p50
ssVs5-e12-p1-lite-netics
p51
g2
(tRp52
g4
I0
sg5
I263
sg6
I1
sg7
VEvery Shark Tank Product
p53
sg9
VLite-Netics Pitch (Shark Tank Season 5 Episode 12)
p54
ssVs5-e23-p1-hold-your-haunches
p55
g2
(tRp56
g4
I0
sg5
I769
sg6
I0
sg7
VEvery Shark Tank Product
p57
sg9
VHold Your Haunches (Shark Tank Season 5 Episode 23)
p58
ssVs5-e6-p2-elephant-chat
p59
g2
(tRp60
g4
I1
sg5
I2208
sg6
I1
sg7
VEvery Shark Tank Product
p61
sg9
VElephant Chat Pitch (Shark Tank Season 5 Episode 6)
p62
ssVs5-e8-p4-pet-paint
p63
g2
(tRp64
g4
I0
sg5
I1121
sg6
I2
sg7
VEvery Shark Tank Product
p65
sg9
VPet Paint Pitch (Shark Tank Season 5 Episode 8)
p66
ssVs5-e3-p2-the-freeloader
p67
g2
(tRp68
g4
I0
sg5
I440
sg6
I0
sg7
VEvery Shark Tank Product
p69
sg9
VThe Freeloader Pitch (Shark Tank Season 5 Episode 3)
p70
ssVs5-e14-p4-balloon-distractions
p71
g2
(tRp72
g4
I1
sg5
I488
sg6
I1
sg7
VEvery Shark Tank Product
p73
sg9
VBalloon Distractions Pitch (Shark Tank Season 5 Episode 14)
p74
ssVs5-e28-p2-cinnaholic
p75
g2
(tRp76
g4
I1
sg5
I2697
sg6
I4
sg7
VEvery Shark Tank Product
p77
sg9
VCinnaholic Pitch (Shark Tank Season 5 Episode 28)
p78
ssVs5-e15-p2-life-caps
p79
g2
(tRp80
g4
I0
sg5
I1683
sg6
I4
sg7
VEvery Shark Tank Product
p81
sg9
VLife Caps Pitch (Shark Tank Season 5 Episode 15)
p82
ssVs5-e2-p1-breathometer
p83
g2
(tRp84
g4
I2
sg5
I23360
sg6
I32
sg7
VEvery Shark Tank Product
p85
sg9
VBreathOmeter Pitch (Shark Tank Season 5 Episode 2)
p86
ssVs5-e23-p2-happy-feet
p87
g2
(tRp88
g4
I0
sg5
I1198
sg6
I3
sg7
VEvery Shark Tank Product
p89
sg9
VHappy Feet Pitch (Shark Tank Season 5 Episode 23)
p90
ssVs5-e7-p4-tree-t-pee
p91
g2
(tRp92
g4
I4
sg5
I8100
sg6
I11
sg7
VEvery Shark Tank Product
p93
sg9
VTree-T-Pee Pitch (Shark Tank Season 5 Episode 7)
p94
ssVs5-e14-p2-invisiplug
p95
g2
(tRp96
g4
I0
sg5
I272
sg6
I0
sg7
VEvery Shark Tank Product
p97
sg9
VInvisiplug Pitch (Shark Tank Season 5 Episode 14)
p98
ssVs5-e11-p3-fohawx
p99
g2
(tRp100
g4
I1
sg5
I434
sg6
I0
sg7
VEvery Shark Tank Product
p101
sg9
VFohawx Pitch (Shark Tank Season 5 Episode 11)
p102
ssVs5-e9-p2-slawsa
p103
g2
(tRp104
g4
I0
sg5
I350
sg6
I0
sg7
VEvery Shark Tank Product
p105
sg9
VSlawsa Pitch (Shark Tank Season 5 Episode 9)
p106
ssVs5-e1-p3-sweet-ballz
p107
g2
(tRp108
g4
I0
sg5
I925
sg6
I1
sg7
VEvery Shark Tank Product
p109
sg9
VSweet Ballz Pitch (Shark Tank Season 5 Episode 1)
p110
ssVs5-e5-p1-rufflebutts-and-ruggedbutts
p111
g2
(tRp112
g4
I0
sg5
I880
sg6
I0
sg7
VEvery Shark Tank Product
p113
sg9
VRufflebutts And Ruggedbutts Pitch (Shark Tank Season 5 Episode 5)
p114
ssVs5-e14-p3-lockerbones
p115
g2
(tRp116
g4
I0
sg5
I152
sg6
I0
sg7
VEvery Shark Tank Product
p117
sg9
VLockerBones Pitch (Shark Tank Season 5 Episode 14)
p118
ssVs5-e21-p1-chapul
p119
g2
(tRp120
g4
I0
sg5
I390
sg6
I0
sg7
VEvery Shark Tank Product
p121
sg9
VChapul Pitch (Shark Tank Season 5 Episode 21)
p122
ssVs5-e10-p1-yubo
p123
g2
(tRp124
g4
I0
sg5
I592
sg6
I0
sg7
VEvery Shark Tank Product
p125
sg9
VYubo Pitch (Shark Tank Season 5 Episode 10)
p126
ssVs5-e13-p2-the-wall-doctor-rx
p127
g2
(tRp128
g4
I1
sg5
I4242
sg6
I6
sg7
VEvery Shark Tank Product
p129
sg9
VThe Wall Doctor Rx (Shark Tank Season 5 Episode 13)
p130
ssVs5-e24-p2-powerpot
p131
g2
(tRp132
g4
I1
sg5
I193
sg6
I0
sg7
VEvery Shark Tank Product
p133
sg9
VPowerPot Pitch (Shark Tank Season 5 Episode 24)
p134
ssVs5-e22-p3-kodiak-cakes
p135
g2
(tRp136
g4
I4
sg5
I7835
sg6
I15
sg7
VEvery Shark Tank Product
p137
sg9
VKodiak Cakes Pitch (Shark Tank Season 5 Episode 22)
p138
ssVs5-e2-p2-man-medals
p139
g2
(tRp140
g4
I0
sg5
I377
sg6
I1
sg7
VEvery Shark Tank Product
p141
sg9
VMan Medals Pitch (Shark Tank Season 5 Episode 2)
p142
ssVs5-e11-p1-spirithood
p143
g2
(tRp144
g4
I0
sg5
I1617
sg6
I2
sg7
VEvery Shark Tank Product
p145
sg9
VSpirithood Pitch (Shark Tank Season 5 Episode 11)
p146
ssVs5-e18-p2-bambooee
p147
g2
(tRp148
g4
I1
sg5
I3700
sg6
I8
sg7
VEvery Shark Tank Product
p149
sg9
VBambooee Pitch (Shark Tank Season 5 Episode 18)
p150
ssVs5-e29-p2-tie-not
p151
g2
(tRp152
g4
I0
sg5
I421
sg6
I0
sg7
VEvery Shark Tank Product
p153
sg9
VTie-Not Pitch (Shark Tank Season 5 Episode 29)
p154
ssVs5-e22-p1-the-paint-brush-cover
p155
g2
(tRp156
g4
I0
sg5
I803
sg6
I1
sg7
VEvery Shark Tank Product
p157
sg9
VThe Paint Brush Cover Pitch (Shark Tank Season 5 Episode 22)
p158
ssVs5-e10-p3-chocomize
p159
g2
(tRp160
g4
I0
sg5
I512
sg6
I0
sg7
VEvery Shark Tank Product
p161
sg9
VChocomize Pitch (Shark Tank Season 5 Episode 10)
p162
ssVs5-e17-p1-moberi
p163
g2
(tRp164
g4
I0
sg5
I388
sg6
I0
sg7
VEvery Shark Tank Product
p165
sg9
VMoberi Pitch (Shark Tank Season 5 Episode 17)
p166
ssVs5-e9-p4-surprise-ride
p167
g2
(tRp168
g4
I0
sg5
I98
sg6
I0
sg7
VEvery Shark Tank Product
p169
sg9
VSurprise Ride Pitch (Shark Tank Season 5 Episode 9)
p170
ssVs5-e13-p4-groovebook
p171
g2
(tRp172
g4
I0
sg5
I13896
sg6
I18
sg7
VEvery Shark Tank Product
p173
sg9
VGroovebook Pitch (Shark Tank Season 5 Episode 13)
p174
ssVs5-e5-p3-rent-a-goat
p175
g2
(tRp176
g4
I0
sg5
I1352
sg6
I2
sg7
VEvery Shark Tank Product
p177
sg9
VRent A Goat Pitch (Shark Tank Season 5 Episode 5)
p178
ssVs5-e10-p4-grace-and-lace
p179
g2
(tRp180
g4
I2
sg5
I3918
sg6
I4
sg7
VEvery Shark Tank Product
p181
sg9
VGrace and Lace Pitch (Shark Tank Season 5 Episode 10)
p182
ssVs5-e28-p1-oru-kayak
p183
g2
(tRp184
g4
I0
sg5
I1991
sg6
I5
sg7
VEvery Shark Tank Product
p185
sg9
VOru Kayak Pitch (Shark Tank Season 5 Episode 28)
p186
ssVs5-e9-p1-doorbot
p187
g2
(tRp188
g4
I1
sg5
I39590
sg6
I25
sg7
VEvery Shark Tank Product
p189
sg9
VDoorBot Pitch (Shark Tank Season 5 Episode 9)
p190
ssVs5-e18-p3-zipit
p191
g2
(tRp192
g4
I0
sg5
I551
sg6
I2
sg7
VEvery Shark Tank Product
p193
sg9
VZipIt Pitch (Shark Tank Season 5 Episode 18)
p194
ssVs5-e1-p2-lynnaes-gourmet-pickles
p195
g2
(tRp196
g4
I0
sg5
I946
sg6
I0
sg7
VEvery Shark Tank Product
p197
sg9
VLynnae's Gourmet Pickles Pitch (Shark Tank Season 5 Episode 1)
p198
ssVs5-e24-p1-quickstop-fire-sprinkler-tools
p199
g2
(tRp200
g4
I0
sg5
I2241
sg6
I5
sg7
VEvery Shark Tank Product
p201
sg9
VQuickstop Fire Sprinkler Tools Pitch (Shark Tank Season 5 Episode 24)
p202
ssVs5-e29-p1-bakers-edge
p203
g2
(tRp204
g4
I0
sg5
I740
sg6
I1
sg7
VEvery Shark Tank Product
p205
sg9
VBaker's Edge Pitch (Shark Tank Season 5 Episode 29)
p206
ssVs5-e13-p3-eyebloc
p207
g2
(tRp208
g4
I0
sg5
I341
sg6
I0
sg7
VEvery Shark Tank Product
p209
sg9
VEyebloc Pitch (Shark Tank Season 5 Episode 13)
p210
ssVs5-e8-p1-schulzies-bread-pudding
p211
g2
(tRp212
g4
I0
sg5
I245
sg6
I0
sg7
VEvery Shark Tank Product
p213
sg9
VSchulzies Bread Pudding Pitch (Shark Tank Season 5 Episode 8)
p214
ssVs5-e7-p3-kymera-body-board
p215
g2
(tRp216
g4
I4
sg5
I2351
sg6
I1
sg7
VEvery Shark Tank Product
p217
sg9
VKymera Body Board Pitch (Shark Tank Season 5 Episode 7)
p218
ssVs5-e8-p3-bellybuds
p219
g2
(tRp220
g4
I0
sg5
I365
sg6
I1
sg7
VEvery Shark Tank Product
p221
sg9
VBellyBuds Pitch (Shark Tank Season 5 Episode 8)
p222
ssVs5-e4-p1-sunday-night-slow-jams
p223
g2
(tRp224
g4
I0
sg5
I331
sg6
I2
sg7
VEvery Shark Tank Product
p225
sg9
VSunday Night Slow Jams Pitch (Shark Tank Season 5 Episode 4)
p226
ssVs5-e9-p3-magic-moments
p227
g2
(tRp228
g4
I0
sg5
I401
sg6
I1
sg7
VEvery Shark Tank Product
p229
sg9
VMagic Moments Pitch (Shark Tank Season 5 Episode 9)
p230
ssVs5-e4-p2-hamboards
p231
g2
(tRp232
g4
I0
sg5
I776
sg6
I2
sg7
VEvery Shark Tank Product
p233
sg9
VHamboards Pitch (Shark Tank Season 5 Episode 4)
p234
ssVs5-e6-p4-total-merchant-resources
p235
g2
(tRp236
g4
I0
sg5
I1760
sg6
I1
sg7
VEvery Shark Tank Product
p237
sg9
VTotal Merchant Resources Pitch (Shark Tank Season 5 Episode 6)
p238
ssVs5-e12-p3-cashmere-hair
p239
g2
(tRp240
g4
I0
sg5
I8414
sg6
I8
sg7
VEvery Shark Tank Product
p241
sg9
VCashmere Hair Pitch (Shark Tank Season 5 Episode 12)
p242
ssVs5-e6-p3-one-thirty-three-productions
p243
g2
(tRp244
g4
I0
sg5
I460
sg6
I0
sg7
VEvery Shark Tank Product
p245
sg9
VOne Thirty Three Productions Pitch (Shark Tank Season 5 Episode 6)
p246
ssVs5-e1-p1-postcard-on-the-run
p247
g2
(tRp248
g4
I0
sg5
I1445
sg6
I0
sg7
VEvery Shark Tank Product
p249
sg9
VPostcard On The Run Pitch (Shark Tank Season 5 Episode 1)
p250
ssVs5-e7-p1-better-life
p251
g2
(tRp252
g4
I0
sg5
I2062
sg6
I3
sg7
VEvery Shark Tank Product
p253
sg9
VBetter Life Pitch (Shark Tank Season 5 Episode 7)
p254
ssVs5-e20-p2-define-bottle
p255
g2
(tRp256
g4
I0
sg5
I463
sg6
I0
sg7
VEvery Shark Tank Product
p257
sg9
VDefine Bottle Pitch (Shark Tank Season 5 Episode 20)
p258
ssVs5-e2-p3-kane-and-couture
p259
g2
(tRp260
g4
I0
sg5
I564
sg6
I1
sg7
VEvery Shark Tank Product
p261
sg9
VKane and Couture Pitch (Shark Tank Season 5 Episode 2)
p262
ssVs5-e25-p2-intelli-stopper-technology
p263
g2
(tRp264
g4
I0
sg5
I415
sg6
I0
sg7
VEvery Shark Tank Product
p265
sg9
VIntelli-Stopper Technology Pitch (Shark Tank Season 5 Episode 25)
p266
ssVs5-e25-p1-ilumi
p267
g2
(tRp268
g4
I0
sg5
I1561
sg6
I0
sg7
VEvery Shark Tank Product
p269
sg9
VIlumi Pitch (Shark Tank Season 5 Episode 25)
p270
ssVs5-e18-p1-buzzy
p271
g2
(tRp272
g4
I0
sg5
I762
sg6
I2
sg7
VEvery Shark Tank Product
p273
sg9
VBuzzy Pitch (Shark Tank Season 5 Episode 18)
p274
ssVs5-e22-p2-monkey-mat
p275
g2
(tRp276
g4
I0
sg5
I695
sg6
I1
sg7
VEvery Shark Tank Product
p277
sg9
VMonkey Mat Pitch (Shark Tank Season 5 Episode 22)
p278
ssVs5-e12-p2-hanukkah-tree-topper
p279
g2
(tRp280
g4
I1
sg5
I552
sg6
I0
sg7
VEvery Shark Tank Product
p281
sg9
VHanukkah Tree Topper Pitch (Shark Tank Season 5 Episode 12)
p282
ssVs5-e3-p3-rapid-ramen-cooker
p283
g2
(tRp284
g4
I0
sg5
I2202
sg6
I1
sg7
VEvery Shark Tank Product
p285
sg9
VRapid Ramen Cooker Pitch (Shark Tank Season 5 Episode 3)
p286
ssVs5-e15-p3-freshly-picked
p287
g2
(tRp288
g4
I0
sg5
I3333
sg6
I1
sg7
VEvery Shark Tank Product
p289
sg9
VFreshly Picked Pitch (Shark Tank Season 5 Episode 15)
p290
ssVs5-e17-p3-southern-culture-artisan-foods
p291
g2
(tRp292
g4
I1
sg5
I591
sg6
I1
sg7
VEvery Shark Tank Product
p293
sg9
VSouthern Culture Artisan Foods Pitch (Shark Tank Season 5 Episode 17)
p294
ssVs5-e25-p3-fort-magic
p295
g2
(tRp296
g4
I0
sg5
I733
sg6
I0
sg7
VEvery Shark Tank Product
p297
sg9
VFort Magic Pitch (Shark Tank Season 5 Episode 25)
p298
ssVs5-e8-p2-paparazzi-proposals
p299
g2
(tRp300
g4
I0
sg5
I574
sg6
I0
sg7
VEvery Shark Tank Product
p301
sg9
VPaparazzi Proposals Pitch (Shark Tank Season 5 Episode 8)
p302
ssVs5-e11-p4-de-boned-baby-back-rib-steak
p303
g2
(tRp304
g4
I3
sg5
I12832
sg6
I12
sg7
VEvery Shark Tank Product
p305
sg9
VDe-Boned Baby Back Rib Steak Pitch (Shark Tank Season 5 Episode 11)
p306
ssVs5-e14-p1-alaska-glacial-mud-company
p307
g2
(tRp308
g4
I0
sg5
I139
sg6
I0
sg7
VEvery Shark Tank Product
p309
sg9
VAlaska Glacial Mud Company Pitch (Shark Tank Season 5 Episode 14)
p310
ssVs5-e17-p2-ddp-yoga
p311
g2
(tRp312
g4
I1
sg5
I13617
sg6
I60
sg7
VEvery Shark Tank Product
p313
sg9
VDDP Yoga Pitch (Shark Tank Season 5 Episode 17)
p314
ssVs5-e5-p2-bare-ease
p315
g2
(tRp316
g4
I0
sg5
I535
sg6
I1
sg7
VEvery Shark Tank Product
p317
sg9
VBare Ease Pitch (Shark Tank Season 5 Episode 5)
p318
ssVs5-e27-p1-hangease
p319
g2
(tRp320
g4
I1
sg5
I756
sg6
I1
sg7
VEvery Shark Tank Product
p321
sg9
VHangEase Pitch (Shark Tank Season 5 Episode 27)
p322
ssVs5-e15-p1-swimzip
p323
g2
(tRp324
g4
I0
sg5
I443
sg6
I1
sg7
VEvery Shark Tank Product
p325
sg9
VSwimzip Pitch (Shark Tank Season 5 Episode 15)
p326
ssVs5-e21-p2-morninghead
p327
g2
(tRp328
g4
I0
sg5
I1224
sg6
I3
sg7
VEvery Shark Tank Product
p329
sg9
VMorningHead Pitch (Shark Tank Season 5 Episode 21)
p330
ssVs5-e7-p2-180cup
p331
g2
(tRp332
g4
I2
sg5
I2405
sg6
I3
sg7
VEvery Shark Tank Product
p333
sg9
V180Cup Pitch (Shark Tank Season 5 Episode 7)
p334
ssVs5-e11-p2-omni
p335
g2
(tRp336
g4
I0
sg5
I4300
sg6
I11
sg7
VEvery Shark Tank Product
p337
sg9
VOmni Pitch (Shark Tank Season 5 Episode 11)
p338
ss.