(dp0
S's5-e29-p1'
p1
ccollections
defaultdict
p2
(tRp3
S'dislike_count'
p4
I0
sS'view_count'
p5
I701
sS'like_count'
p6
I1
sS'uploader'
p7
VEvery Shark Tank Product
p8
sS'title'
p9
VBaker's Edge Pitch (Shark Tank Season 5 Episode 29)
p10
ssS's5-e8-p3'
p11
g2
(tRp12
g4
I0
sg5
I344
sg6
I1
sg7
VEvery Shark Tank Product
p13
sg9
VBellyBuds Pitch (Shark Tank Season 5 Episode 8)
p14
ssS's5-e8-p2'
p15
g2
(tRp16
g4
I0
sg5
I546
sg6
I0
sg7
VEvery Shark Tank Product
p17
sg9
VPaparazzi Proposals Pitch (Shark Tank Season 5 Episode 8)
p18
ssS's5-e8-p1'
p19
g2
(tRp20
g4
I0
sg5
I233
sg6
I0
sg7
VEvery Shark Tank Product
p21
sg9
VSchulzies Bread Pudding Pitch (Shark Tank Season 5 Episode 8)
p22
ssS's5-e26-p1'
p23
g2
(tRp24
g4
I0
sg5
I583
sg6
I2
sg7
VEvery Shark Tank Product
p25
sg9
VCrio Bru Pitch (Shark Tank Season 5 Episode 26)
p26
ssS's5-e8-p4'
p27
g2
(tRp28
g4
I0
sg5
I1059
sg6
I2
sg7
VEvery Shark Tank Product
p29
sg9
VPet Paint Pitch (Shark Tank Season 5 Episode 8)
p30
ssS's5-e2-p1'
p31
g2
(tRp32
g4
I2
sg5
I23101
sg6
I32
sg7
VEvery Shark Tank Product
p33
sg9
VBreathOmeter Pitch (Shark Tank Season 5 Episode 2)
p34
ssS's5-e2-p3'
p35
g2
(tRp36
g4
I0
sg5
I527
sg6
I1
sg7
VEvery Shark Tank Product
p37
sg9
VKane and Couture Pitch (Shark Tank Season 5 Episode 2)
p38
ssS's5-e2-p2'
p39
g2
(tRp40
g4
I0
sg5
I354
sg6
I1
sg7
VEvery Shark Tank Product
p41
sg9
VMan Medals Pitch (Shark Tank Season 5 Episode 2)
p42
ssS's5-e6-p1'
p43
g2
(tRp44
g4
I0
sg5
I4214
sg6
I2
sg7
VEvery Shark Tank Product
p45
sg9
VFiberfix Pitch (Shark Tank Season 5 Episode 6)
p46
ssS's5-e6-p3'
p47
g2
(tRp48
g4
I0
sg5
I414
sg6
I0
sg7
VEvery Shark Tank Product
p49
sg9
VOne Thirty Three Productions Pitch (Shark Tank Season 5 Episode 6)
p50
ssS's5-e6-p2'
p51
g2
(tRp52
g4
I0
sg5
I2147
sg6
I1
sg7
VEvery Shark Tank Product
p53
sg9
VElephant Chat Pitch (Shark Tank Season 5 Episode 6)
p54
ssS's5-e18-p3'
p55
g2
(tRp56
g4
I0
sg5
I536
sg6
I2
sg7
VEvery Shark Tank Product
p57
sg9
VZipIt Pitch (Shark Tank Season 5 Episode 18)
p58
ssS's5-e6-p4'
p59
g2
(tRp60
g4
I0
sg5
I1737
sg6
I1
sg7
VEvery Shark Tank Product
p61
sg9
VTotal Merchant Resources Pitch (Shark Tank Season 5 Episode 6)
p62
ssS's5-e18-p1'
p63
g2
(tRp64
g4
I0
sg5
I729
sg6
I2
sg7
VEvery Shark Tank Product
p65
sg9
VBuzzy Pitch (Shark Tank Season 5 Episode 18)
p66
ssS's5-e1-p1'
p67
g2
(tRp68
g4
I0
sg5
I1390
sg6
I0
sg7
VEvery Shark Tank Product
p69
sg9
VPostcard On The Run Pitch (Shark Tank Season 5 Episode 1)
p70
ssS's5-e1-p2'
p71
g2
(tRp72
g4
I0
sg5
I892
sg6
I0
sg7
VEvery Shark Tank Product
p73
sg9
VLynnae's Gourmet Pickles Pitch (Shark Tank Season 5 Episode 1)
p74
ssS's5-e1-p3'
p75
g2
(tRp76
g4
I0
sg5
I863
sg6
I1
sg7
VEvery Shark Tank Product
p77
sg9
VSweet Ballz Pitch (Shark Tank Season 5 Episode 1)
p78
ssS's5-e11-p4'
p79
g2
(tRp80
g4
I3
sg5
I12514
sg6
I12
sg7
VEvery Shark Tank Product
p81
sg9
VDe-Boned Baby Back Rib Steak Pitch (Shark Tank Season 5 Episode 11)
p82
ssS's5-e23-p2'
p83
g2
(tRp84
g4
I0
sg5
I1168
sg6
I3
sg7
VEvery Shark Tank Product
p85
sg9
VHappy Feet Pitch (Shark Tank Season 5 Episode 23)
p86
ssS's5-e3-p2'
p87
g2
(tRp88
g4
I0
sg5
I407
sg6
I0
sg7
VEvery Shark Tank Product
p89
sg9
VThe Freeloader Pitch (Shark Tank Season 5 Episode 3)
p90
ssS's5-e3-p3'
p91
g2
(tRp92
g4
I0
sg5
I2146
sg6
I1
sg7
VEvery Shark Tank Product
p93
sg9
VRapid Ramen Cooker Pitch (Shark Tank Season 5 Episode 3)
p94
ssS's5-e11-p2'
p95
g2
(tRp96
g4
I0
sg5
I4174
sg6
I10
sg7
VEvery Shark Tank Product
p97
sg9
VOmni Pitch (Shark Tank Season 5 Episode 11)
p98
ssS's5-e3-p1'
p99
g2
(tRp100
g4
I0
sg5
I249
sg6
I0
sg7
VEvery Shark Tank Product
p101
sg9
VFairytale Wishes Pitch (Shark Tank Season 5 Episode 3)
p102
ssS's5-e18-p2'
p103
g2
(tRp104
g4
I1
sg5
I3599
sg6
I8
sg7
VEvery Shark Tank Product
p105
sg9
VBambooee Pitch (Shark Tank Season 5 Episode 18)
p106
ssS's5-e14-p3'
p107
g2
(tRp108
g4
I0
sg5
I149
sg6
I0
sg7
VEvery Shark Tank Product
p109
sg9
VLockerBones Pitch (Shark Tank Season 5 Episode 14)
p110
ssS's5-e4-p4'
p111
g2
(tRp112
g4
I0
sg5
I2556
sg6
I2
sg7
VEvery Shark Tank Product
p113
sg9
VScreenMend Pitch  (Shark Tank Season 5 Episode 4)
p114
ssS's5-e4-p3'
p115
g2
(tRp116
g4
I0
sg5
I15178
sg6
I21
sg7
VEvery Shark Tank Product
p117
sg9
VScan App Pitch (Shark Tank Season 5 Episode 4)
p118
ssS's5-e4-p2'
p119
g2
(tRp120
g4
I0
sg5
I756
sg6
I2
sg7
VEvery Shark Tank Product
p121
sg9
VHamboards Pitch (Shark Tank Season 5 Episode 4)
p122
ssS's5-e4-p1'
p123
g2
(tRp124
g4
I0
sg5
I318
sg6
I2
sg7
VEvery Shark Tank Product
p125
sg9
VSunday Night Slow Jams Pitch (Shark Tank Season 5 Episode 4)
p126
ssS's5-e14-p2'
p127
g2
(tRp128
g4
I0
sg5
I268
sg6
I0
sg7
VEvery Shark Tank Product
p129
sg9
VInvisiplug Pitch (Shark Tank Season 5 Episode 14)
p130
ssS's5-e13-p2'
p131
g2
(tRp132
g4
I1
sg5
I4092
sg6
I5
sg7
VEvery Shark Tank Product
p133
sg9
VThe Wall Doctor Rx (Shark Tank Season 5 Episode 13)
p134
ssS's5-e13-p3'
p135
g2
(tRp136
g4
I0
sg5
I321
sg6
I0
sg7
VEvery Shark Tank Product
p137
sg9
VEyebloc Pitch (Shark Tank Season 5 Episode 13)
p138
ssS's5-e24-p2'
p139
g2
(tRp140
g4
I0
sg5
I189
sg6
I0
sg7
VEvery Shark Tank Product
p141
sg9
VPowerPot Pitch (Shark Tank Season 5 Episode 24)
p142
ssS's5-e13-p1'
p143
g2
(tRp144
g4
I0
sg5
I574
sg6
I2
sg7
VEvery Shark Tank Product
p145
sg9
VBounce Bootcamp Pitch (Shark Tank Season 5 Episode 13)
p146
ssS's5-e14-p1'
p147
g2
(tRp148
g4
I0
sg5
I133
sg6
I0
sg7
VEvery Shark Tank Product
p149
sg9
VAlaska Glacial Mud Company Pitch (Shark Tank Season 5 Episode 14)
p150
ssS's5-e13-p4'
p151
g2
(tRp152
g4
I0
sg5
I13496
sg6
I18
sg7
VEvery Shark Tank Product
p153
sg9
VGroovebook Pitch (Shark Tank Season 5 Episode 13)
p154
ssS's5-e20-p1'
p155
g2
(tRp156
g4
I2
sg5
I821
sg6
I2
sg7
VEvery Shark Tank Product
p157
sg9
VHenry's Humdingers Pitch (Shark Tank Season 5 Episode 20)
p158
ssS's5-e22-p2'
p159
g2
(tRp160
g4
I0
sg5
I600
sg6
I1
sg7
VEvery Shark Tank Product
p161
sg9
VMonkey Mat Pitch (Shark Tank Season 5 Episode 22)
p162
ssS's5-e22-p3'
p163
g2
(tRp164
g4
I4
sg5
I7378
sg6
I15
sg7
VEvery Shark Tank Product
p165
sg9
VKodiak Cakes Pitch (Shark Tank Season 5 Episode 22)
p166
ssS's5-e22-p1'
p167
g2
(tRp168
g4
I0
sg5
I777
sg6
I1
sg7
VEvery Shark Tank Product
p169
sg9
VThe Paint Brush Cover Pitch (Shark Tank Season 5 Episode 22)
p170
ssS's5-e23-p1'
p171
g2
(tRp172
g4
I0
sg5
I740
sg6
I0
sg7
VEvery Shark Tank Product
p173
sg9
VHold Your Haunches (Shark Tank Season 5 Episode 23)
p174
ssS's5-e20-p2'
p175
g2
(tRp176
g4
I0
sg5
I430
sg6
I0
sg7
VEvery Shark Tank Product
p177
sg9
VDefine Bottle Pitch (Shark Tank Season 5 Episode 20)
p178
ssS's5-e28-p2'
p179
g2
(tRp180
g4
I1
sg5
I2603
sg6
I4
sg7
VEvery Shark Tank Product
p181
sg9
VCinnaholic Pitch (Shark Tank Season 5 Episode 28)
p182
ssS's5-e11-p1'
p183
g2
(tRp184
g4
I0
sg5
I1585
sg6
I3
sg7
VEvery Shark Tank Product
p185
sg9
VSpirithood Pitch (Shark Tank Season 5 Episode 11)
p186
ssS's5-e9-p4'
p187
g2
(tRp188
g4
I0
sg5
I91
sg6
I0
sg7
VEvery Shark Tank Product
p189
sg9
VSurprise Ride Pitch (Shark Tank Season 5 Episode 9)
p190
ssS's5-e5-p1'
p191
g2
(tRp192
g4
I0
sg5
I845
sg6
I0
sg7
VEvery Shark Tank Product
p193
sg9
VRufflebutts And Ruggedbutts Pitch (Shark Tank Season 5 Episode 5)
p194
ssS's5-e5-p2'
p195
g2
(tRp196
g4
I0
sg5
I499
sg6
I1
sg7
VEvery Shark Tank Product
p197
sg9
VBare Ease Pitch (Shark Tank Season 5 Episode 5)
p198
ssS's5-e5-p3'
p199
g2
(tRp200
g4
I0
sg5
I1273
sg6
I2
sg7
VEvery Shark Tank Product
p201
sg9
VRent A Goat Pitch (Shark Tank Season 5 Episode 5)
p202
ssS's5-e5-p4'
p203
g2
(tRp204
g4
I0
sg5
I784
sg6
I1
sg7
VEvery Shark Tank Product
p205
sg9
VVeggie Mama Pitch (Shark Tank Season 5 Episode 5)
p206
ssS's5-e9-p1'
p207
g2
(tRp208
g4
I1
sg5
I38879
sg6
I24
sg7
VEvery Shark Tank Product
p209
sg9
VDoorBot Pitch (Shark Tank Season 5 Episode 9)
p210
ssS's5-e9-p2'
p211
g2
(tRp212
g4
I0
sg5
I326
sg6
I0
sg7
VEvery Shark Tank Product
p213
sg9
VSlawsa Pitch (Shark Tank Season 5 Episode 9)
p214
ssS's5-e9-p3'
p215
g2
(tRp216
g4
I0
sg5
I383
sg6
I1
sg7
VEvery Shark Tank Product
p217
sg9
VMagic Moments Pitch (Shark Tank Season 5 Episode 9)
p218
ssS's5-e7-p2'
p219
g2
(tRp220
g4
I1
sg5
I2304
sg6
I3
sg7
VEvery Shark Tank Product
p221
sg9
V180Cup Pitch (Shark Tank Season 5 Episode 7)
p222
ssS's5-e7-p3'
p223
g2
(tRp224
g4
I4
sg5
I2287
sg6
I1
sg7
VEvery Shark Tank Product
p225
sg9
VKymera Body Board Pitch (Shark Tank Season 5 Episode 7)
p226
ssS's5-e15-p2'
p227
g2
(tRp228
g4
I0
sg5
I1627
sg6
I4
sg7
VEvery Shark Tank Product
p229
sg9
VLife Caps Pitch (Shark Tank Season 5 Episode 15)
p230
ssS's5-e7-p1'
p231
g2
(tRp232
g4
I0
sg5
I1935
sg6
I3
sg7
VEvery Shark Tank Product
p233
sg9
VBetter Life Pitch (Shark Tank Season 5 Episode 7)
p234
ssS's5-e26-p2'
p235
g2
(tRp236
g4
I0
sg5
I484
sg6
I0
sg7
VEvery Shark Tank Product
p237
sg9
VCerebral Success (Shark Tank Season 5 Episode 26)
p238
ssS's5-e21-p1'
p239
g2
(tRp240
g4
I0
sg5
I362
sg6
I0
sg7
VEvery Shark Tank Product
p241
sg9
VChapul Pitch (Shark Tank Season 5 Episode 21)
p242
ssS's5-e7-p4'
p243
g2
(tRp244
g4
I4
sg5
I7864
sg6
I11
sg7
VEvery Shark Tank Product
p245
sg9
VTree-T-Pee Pitch (Shark Tank Season 5 Episode 7)
p246
ssS's5-e24-p1'
p247
g2
(tRp248
g4
I0
sg5
I2165
sg6
I5
sg7
VEvery Shark Tank Product
p249
sg9
VQuickstop Fire Sprinkler Tools Pitch (Shark Tank Season 5 Episode 24)
p250
ssS's5-e11-p3'
p251
g2
(tRp252
g4
I1
sg5
I395
sg6
I0
sg7
VEvery Shark Tank Product
p253
sg9
VFohawx Pitch (Shark Tank Season 5 Episode 11)
p254
ssS's5-e29-p2'
p255
g2
(tRp256
g4
I0
sg5
I406
sg6
I0
sg7
VEvery Shark Tank Product
p257
sg9
VTie-Not Pitch (Shark Tank Season 5 Episode 29)
p258
ssS's5-e14-p4'
p259
g2
(tRp260
g4
I1
sg5
I473
sg6
I1
sg7
VEvery Shark Tank Product
p261
sg9
VBalloon Distractions Pitch (Shark Tank Season 5 Episode 14)
p262
ssS's5-e10-p4'
p263
g2
(tRp264
g4
I2
sg5
I3831
sg6
I4
sg7
VEvery Shark Tank Product
p265
sg9
VGrace and Lace Pitch (Shark Tank Season 5 Episode 10)
p266
ssS's5-e10-p3'
p267
g2
(tRp268
g4
I0
sg5
I498
sg6
I0
sg7
VEvery Shark Tank Product
p269
sg9
VChocomize Pitch (Shark Tank Season 5 Episode 10)
p270
ssS's5-e10-p2'
p271
g2
(tRp272
g4
I0
sg5
I784
sg6
I1
sg7
VEvery Shark Tank Product
p273
sg9
VPursecase Pitch (Shark Tank Season 5 Episode 10)
p274
ssS's5-e10-p1'
p275
g2
(tRp276
g4
I0
sg5
I512
sg6
I0
sg7
VEvery Shark Tank Product
p277
sg9
VYubo Pitch (Shark Tank Season 5 Episode 10)
p278
ssS's5-e15-p1'
p279
g2
(tRp280
g4
I0
sg5
I405
sg6
I1
sg7
VEvery Shark Tank Product
p281
sg9
VSwimzip Pitch (Shark Tank Season 5 Episode 15)
p282
ssS's5-e27-p1'
p283
g2
(tRp284
g4
I1
sg5
I718
sg6
I1
sg7
VEvery Shark Tank Product
p285
sg9
VHangEase Pitch (Shark Tank Season 5 Episode 27)
p286
ssS's5-e28-p1'
p287
g2
(tRp288
g4
I0
sg5
I1873
sg6
I4
sg7
VEvery Shark Tank Product
p289
sg9
VOru Kayak Pitch (Shark Tank Season 5 Episode 28)
p290
ssS's5-e17-p2'
p291
g2
(tRp292
g4
I1
sg5
I13327
sg6
I59
sg7
VEvery Shark Tank Product
p293
sg9
VDDP Yoga Pitch (Shark Tank Season 5 Episode 17)
p294
ssS's5-e17-p3'
p295
g2
(tRp296
g4
I1
sg5
I566
sg6
I1
sg7
VEvery Shark Tank Product
p297
sg9
VSouthern Culture Artisan Foods Pitch (Shark Tank Season 5 Episode 17)
p298
ssS's5-e21-p2'
p299
g2
(tRp300
g4
I0
sg5
I1196
sg6
I3
sg7
VEvery Shark Tank Product
p301
sg9
VMorningHead Pitch (Shark Tank Season 5 Episode 21)
p302
ssS's5-e17-p1'
p303
g2
(tRp304
g4
I0
sg5
I360
sg6
I0
sg7
VEvery Shark Tank Product
p305
sg9
VMoberi Pitch (Shark Tank Season 5 Episode 17)
p306
ssS's5-e25-p3'
p307
g2
(tRp308
g4
I0
sg5
I711
sg6
I0
sg7
VEvery Shark Tank Product
p309
sg9
VFort Magic Pitch (Shark Tank Season 5 Episode 25)
p310
ssS's5-e25-p2'
p311
g2
(tRp312
g4
I0
sg5
I394
sg6
I0
sg7
VEvery Shark Tank Product
p313
sg9
VIntelli-Stopper Technology Pitch (Shark Tank Season 5 Episode 25)
p314
ssS's5-e25-p1'
p315
g2
(tRp316
g4
I0
sg5
I1448
sg6
I0
sg7
VEvery Shark Tank Product
p317
sg9
VIlumi Pitch (Shark Tank Season 5 Episode 25)
p318
ssS's5-e15-p3'
p319
g2
(tRp320
g4
I0
sg5
I3187
sg6
I1
sg7
VEvery Shark Tank Product
p321
sg9
VFreshly Picked Pitch (Shark Tank Season 5 Episode 15)
p322
ssS's5-e12-p4'
p323
g2
(tRp324
g4
I7
sg5
I9015
sg6
I6
sg7
VEvery Shark Tank Product
p325
sg9
VTipsy Elves Pitch (Shark Tank Season 5 Episode 12)
p326
ssS's5-e12-p1'
p327
g2
(tRp328
g4
I0
sg5
I260
sg6
I0
sg7
VEvery Shark Tank Product
p329
sg9
VLite-Netics Pitch (Shark Tank Season 5 Episode 12)
p330
ssS's5-e12-p3'
p331
g2
(tRp332
g4
I0
sg5
I8113
sg6
I8
sg7
VEvery Shark Tank Product
p333
sg9
VCashmere Hair Pitch (Shark Tank Season 5 Episode 12)
p334
ssS's5-e12-p2'
p335
g2
(tRp336
g4
I1
sg5
I481
sg6
I0
sg7
VEvery Shark Tank Product
p337
sg9
VHanukkah Tree Topper Pitch (Shark Tank Season 5 Episode 12)
p338
ss.