(dp0
Vs2-e7-p1-s02e
p1
ccollections
defaultdict
p2
(tRp3
S'dislike_count'
p4
NsS'view_count'
p5
I3765
sS'like_count'
p6
NsS'uploader'
p7
VStephen Brown
p8
sS'title'
p9
VShark Tank S02E07
p10
ssVshark-tank-thingloss-lipstick-that-makes-you-thin-thingloss-lipstick-that-makes-you-th
p11
g2
(tRp12
g4
Nsg5
I374587
sg6
Nsg7
VJason Nast
p13
sg9
VShark Tank ThinGloss Lipstick that makes you thin
p14
ss.