(dp0
Vs6-e17-p1-s06e
p1
ccollections
defaultdict
p2
(tRp3
S'dislike_count'
p4
I1
sS'view_count'
p5
I9759
sS'like_count'
p6
I20
sS'uploader'
p7
VStephen Brown
p8
sS'title'
p9
VShark Tank S06E17
p10
ssVs6-e18-p1-s06e
p11
g2
(tRp12
g4
I2
sg5
I9054
sg6
I16
sg7
VStephen Brown
p13
sg9
VShark Tank S06E18
p14
ssVs6-e14-p1-s06e
p15
g2
(tRp16
g4
I1
sg5
I9108
sg6
I15
sg7
VStephen Brown
p17
sg9
VShark Tank S06E14
p18
ssVs6-e12-p1-s06e
p19
g2
(tRp20
g4
I1
sg5
I7089
sg6
I12
sg7
VStephen Brown
p21
sg9
VShark Tank S06E12
p22
ssVs6-e11-p1-s06e
p23
g2
(tRp24
g4
I0
sg5
I7861
sg6
I10
sg7
VStephen Brown
p25
sg9
VShark Tank S06E11
p26
ssVs6-e13-p1-s06e
p27
g2
(tRp28
g4
I1
sg5
I6746
sg6
I8
sg7
VStephen Brown
p29
sg9
VShark Tank S06E13
p30
ssVs6-e27-p1-s06e
p31
g2
(tRp32
g4
I2
sg5
I7311
sg6
I14
sg7
VStephen Brown
p33
sg9
VShark Tank S06E27
p34
ssVs6-e24-p1-s06e
p35
g2
(tRp36
g4
I2
sg5
I6951
sg6
I20
sg7
VStephen Brown
p37
sg9
VShark Tank S06E24
p38
ssVs6-e26-p1-s06e
p39
g2
(tRp40
g4
I3
sg5
I6581
sg6
I10
sg7
VStephen Brown
p41
sg9
VShark Tank S06E26
p42
ssVs6-e9-p1-s06e
p43
g2
(tRp44
g4
I0
sg5
I6910
sg6
I16
sg7
VStephen Brown
p45
sg9
VShark Tank S06E09
p46
ssVs6-e16-p1-s06e
p47
g2
(tRp48
g4
I0
sg5
I9526
sg6
I16
sg7
VStephen Brown
p49
sg9
VShark Tank S06E16
p50
ssVs6-e23-p1-s06e
p51
g2
(tRp52
g4
I4
sg5
I8749
sg6
I11
sg7
VStephen Brown
p53
sg9
VShark Tank S06E23
p54
ssVs6-e15-p1-s06e
p55
g2
(tRp56
g4
I4
sg5
I13923
sg6
I28
sg7
VStephen Brown
p57
sg9
VShark Tank S06E15
p58
ssVs6-e20-p1-s06e
p59
g2
(tRp60
g4
I0
sg5
I7461
sg6
I19
sg7
VStephen Brown
p61
sg9
VShark Tank S06E20
p62
ssVs6-e25-p1-s06e
p63
g2
(tRp64
g4
I2
sg5
I6965
sg6
I16
sg7
VStephen Brown
p65
sg9
VShark Tank S06E25
p66
ssVs6-e29-p1-s06e
p67
g2
(tRp68
g4
I3
sg5
I7470
sg6
I9
sg7
VStephen Brown
p69
sg9
VShark Tank S06E29
p70
ssVs6-e5-p1-s06e
p71
g2
(tRp72
g4
I3
sg5
I7717
sg6
I19
sg7
VStephen Brown
p73
sg9
VShark Tank S06E05
p74
ssVs6-e21-p1-s06e
p75
g2
(tRp76
g4
I2
sg5
I7198
sg6
I14
sg7
VStephen Brown
p77
sg9
VShark Tank S06E21
p78
ssVs6-e8-p1-s06e
p79
g2
(tRp80
g4
I3
sg5
I7423
sg6
I11
sg7
VStephen Brown
p81
sg9
VShark Tank S06E08
p82
ssVs6-e1-p1-s06e
p83
g2
(tRp84
g4
I3
sg5
I17061
sg6
I22
sg7
VStephen Brown
p85
sg9
VShark Tank S06E01
p86
ssVs6-e19-p1-s06e
p87
g2
(tRp88
g4
I2
sg5
I8251
sg6
I14
sg7
VStephen Brown
p89
sg9
VShark Tank S06E19
p90
ssVs6-e4-p1-s06e
p91
g2
(tRp92
g4
I2
sg5
I8842
sg6
I18
sg7
VStephen Brown
p93
sg9
VShark Tank S06E04
p94
ssVs6-e7-p1-s06e
p95
g2
(tRp96
g4
I1
sg5
I8346
sg6
I10
sg7
VStephen Brown
p97
sg9
VShark Tank S06E07
p98
ssVs6-e6-p1-s06e
p99
g2
(tRp100
g4
I3
sg5
I8585
sg6
I20
sg7
VStephen Brown
p101
sg9
VShark Tank S06E06
p102
ssVs6-e22-p1-s06e
p103
g2
(tRp104
g4
I4
sg5
I9372
sg6
I22
sg7
VStephen Brown
p105
sg9
VShark Tank S06E22
p106
ssVs6-e2-p1-s06e
p107
g2
(tRp108
g4
I2
sg5
I9954
sg6
I18
sg7
VStephen Brown
p109
sg9
VShark Tank S06E02
p110
ssVs6-e28-p1-s06e
p111
g2
(tRp112
g4
I0
sg5
I10541
sg6
I18
sg7
VStephen Brown
p113
sg9
VShark Tank S06E28
p114
ssVs6-e3-p1-s06e
p115
g2
(tRp116
g4
I3
sg5
I7473
sg6
I16
sg7
VStephen Brown
p117
sg9
VShark Tank S06E03
p118
ssVs6-e10-p1-s06e
p119
g2
(tRp120
g4
I2
sg5
I6774
sg6
I12
sg7
VStephen Brown
p121
sg9
VShark Tank S06E10
p122
ss.