(dp0
VShell Bobbers Pitch(Shark Tank Season 4 Episode 22)
p1
ccollections
defaultdict
p2
(tRp3
S'dislike_count'
p4
I1
sS'view_count'
p5
I2674
sS'like_count'
p6
I1
sS'uploader'
p7
VEvery Shark Tank Product
p8
sS'title'
p9
g1
ssVTeddy Needs A Bath Pitch (Shark Tank Season 4 Episode 13)
p10
g2
(tRp11
g4
I0
sg5
I333
sg6
I1
sg7
VEvery Shark Tank Product
p12
sg9
g10
ssVLifter Hamper Pitch (Shark Tank Season 4 Episode 4)
p13
g2
(tRp14
g4
I0
sg5
I307
sg6
I0
sg7
VEvery Shark Tank Product
p15
sg9
g13
ssVNeo Innovations Pitch (Shark Tank Season 4 Episode 18)
p16
g2
(tRp17
g4
I1
sg5
I521
sg6
I3
sg7
VEvery Shark Tank Product
p18
sg9
g16
ssVMarz Sprays Pitch (Shark Tank Season 4 Episode 5)
p19
g2
(tRp20
g4
I0
sg5
I176
sg6
I0
sg7
VEvery Shark Tank Product
p21
sg9
g19
ssVNuts 'N More Pitch (Shark Tank Season 4 Episode 18)
p22
g2
(tRp23
g4
I0
sg5
I911
sg6
I0
sg7
VEvery Shark Tank Product
p24
sg9
g22
ssVBibbitec Pitch (Shark Tank Season 4 Episode 14)
p25
g2
(tRp26
g4
I0
sg5
I131
sg6
I0
sg7
VEvery Shark Tank Product
p27
sg9
g25
ssVEcho Valley Meats Pitch (Shark Tank Season 4 Episode 21)
p28
g2
(tRp29
g4
I2
sg5
I2229
sg6
I2
sg7
VEvery Shark Tank Product
p30
sg9
g28
ssVShemie Pitch (Shark Tank Season 4 Episode 7)
p31
g2
(tRp32
g4
I0
sg5
I297
sg6
I0
sg7
VEvery Shark Tank Product
p33
sg9
g31
ssVSimple Sugars Pitch (Shark Tank Season 4 Episode 20)
p34
g2
(tRp35
g4
I16
sg5
I12726
sg6
I11
sg7
VEvery Shark Tank Product
p36
sg9
g34
ssVGrinds Coffee Pouches Pitch (Shark Tank Season 4 Episode 15)
p37
g2
(tRp38
g4
I0
sg5
I416
sg6
I1
sg7
VEvery Shark Tank Product
p39
sg9
g37
ssVJeska Shoe Company Pitch (Shark Tank Season 4 Episode 18)
p40
g2
(tRp41
g4
I1
sg5
I474
sg6
I0
sg7
VEvery Shark Tank Product
p42
sg9
g40
ssVWicked Good Cupcakes Pitch (Shark Tank Season 4 Episode 23)
p43
g2
(tRp44
g4
I2
sg5
I8825
sg6
I8
sg7
VEvery Shark Tank Product
p45
sg9
g43
ssVBack 9 Dips Pitch (Shark Tank Season 4 Episode 4)
p46
g2
(tRp47
g4
I0
sg5
I264
sg6
I0
sg7
VEvery Shark Tank Product
p48
sg9
g46
ssVPC Classes Online (Shark Tank Season 4 Episode 9)
p49
g2
(tRp50
g4
I0
sg5
I507
sg6
I0
sg7
VEvery Shark Tank Product
p51
sg9
g49
ssVPRO NRG Pitch (Shark Tank Season 4 Episode 6)
p52
g2
(tRp53
g4
I0
sg5
I230
sg6
I0
sg7
VEvery Shark Tank Product
p54
sg9
g52
ssVDrive Suits Pitch (Shark Tank Season 4 Episode 9)
p55
g2
(tRp56
g4
I1
sg5
I754
sg6
I2
sg7
VEvery Shark Tank Product
p57
sg9
g55
ssVBaby's Badass Burgers Pitch (Shark Tank Season 4 Episode 25)
p58
g2
(tRp59
g4
I0
sg5
I797
sg6
I1
sg7
VEvery Shark Tank Product
p60
sg9
g58
ssVFuzzi Bunz Pitch (Shark Tank Season 4 Episode 3)
p61
g2
(tRp62
g4
I0
sg5
I1203
sg6
I0
sg7
VEvery Shark Tank Product
p63
sg9
g61
ssVPink Shutter Photobooths Pitch (Shark Tank Season 4 Episode 25)
p64
g2
(tRp65
g4
I0
sg5
I169
sg6
I0
sg7
VEvery Shark Tank Product
p66
sg9
g64
ssVZomm Pitch (Shark Tank Season 4 Episode 4)
p67
g2
(tRp68
g4
I0
sg5
I471
sg6
I0
sg7
VEvery Shark Tank Product
p69
sg9
g67
ssVCorks Away Pitch (Shark Tank Season 4 Episode 10)
p70
g2
(tRp71
g4
I1
sg5
I139
sg6
I0
sg7
VEvery Shark Tank Product
p72
sg9
g70
ssVScrub Daddy Pitch (Shark Tank Season 4 Episode 7)
p73
g2
(tRp74
g4
I0
sg5
I2157
sg6
I5
sg7
VEvery Shark Tank Product
p75
sg9
g73
ssVEco Nuts Pitch (Shark Tank Season 4 Episode 6)
p76
g2
(tRp77
g4
I0
sg5
I1333
sg6
I0
sg7
VEvery Shark Tank Product
p78
sg9
g76
ssVGame Face Pitch (Shark Tank Season 4 Episode 12)
p79
g2
(tRp80
g4
I0
sg5
I590
sg6
I0
sg7
VEvery Shark Tank Product
p81
sg9
g79
ssVVerbalize It Pitch (Shark Tank Season 4 Episode 26)
p82
g2
(tRp83
g4
I1
sg5
I441
sg6
I1
sg7
VEvery Shark Tank Product
p84
sg9
g82
ssVDrop Stop Pitch (Shark Tank Season 4 Episode 20)
p85
g2
(tRp86
g4
I1
sg5
I1433
sg6
I1
sg7
VEvery Shark Tank Product
p87
sg9
g85
ssVShark Tank CateApp Pitch (Season 4 Episode 3)
p88
g2
(tRp89
g4
I0
sg5
I1022
sg6
I0
sg7
VEvery Shark Tank Product
p90
sg9
g88
ssVProof Eyewear Pitch (Shark Tank Season 4 Episode 17)
p91
g2
(tRp92
g4
I0
sg5
I4526
sg6
I2
sg7
VEvery Shark Tank Product
p93
sg9
g91
ssVMy Cold Snap (Shark Tank Season 4 Episode 15)
p94
g2
(tRp95
g4
I0
sg5
I216
sg6
I0
sg7
VEvery Shark Tank Product
p96
sg9
g94
ssVXero Shoes Pitch (Shark Tank Season 4 Episode 14)
p97
g2
(tRp98
g4
I2
sg5
I2774
sg6
I4
sg7
VEvery Shark Tank Product
p99
sg9
g97
ssVLiddup Pitch (Shark Tank Season 4 Episode 21)
p100
g2
(tRp101
g4
I3
sg5
I671
sg6
I1
sg7
VEvery Shark Tank Product
p102
sg9
g100
ssVBaby Loves Disco Pitch (Shark Tank Season 4 Episode 19)
p103
g2
(tRp104
g4
I0
sg5
I164
sg6
I1
sg7
VEvery Shark Tank Product
p105
sg9
g103
ssVCordaRoy's Pitch (Shark Tank Season 4 Episode 19)
p106
g2
(tRp107
g4
I2
sg5
I1602
sg6
I0
sg7
VEvery Shark Tank Product
p108
sg9
g106
ssVSBU - Self Balancing Unicycle Pitch (Shark Tank Season 4 Episode 7)
p109
g2
(tRp110
g4
I0
sg5
I335
sg6
I0
sg7
VEvery Shark Tank Product
p111
sg9
g109
ssVMee-Ma's Louisiana Gumbo Brick Pitch (Shark Tank Season 4 Episode 24)
p112
g2
(tRp113
g4
I0
sg5
I2602
sg6
I11
sg7
VEvery Shark Tank Product
p114
sg9
g112
ssVFat Ass Fudge Pitch (Shark Tank Season 4 Episode 11)
p115
g2
(tRp116
g4
I0
sg5
I604
sg6
I0
sg7
VEvery Shark Tank Product
p117
sg9
g115
ssVThe Bear & The Rat Pitch (Shark Tank Season 4 Episode 7)
p118
g2
(tRp119
g4
I0
sg5
I406
sg6
I1
sg7
VEvery Shark Tank Product
p120
sg9
g118
ssVRevestor Pitch (Shark Tank Season 4 Episode 9)
p121
g2
(tRp122
g4
I0
sg5
I312
sg6
I1
sg7
VEvery Shark Tank Product
p123
sg9
g121
ssVPlate Topper Pitch (Shark Tank Season 4 Episode 8)
p124
g2
(tRp125
g4
I3
sg5
I8429
sg6
I7
sg7
VEvery Shark Tank Product
p126
sg9
g124
ssVTraditional Fisheries Pitch (Shark Tank Season 4 Episode 20)
p127
g2
(tRp128
g4
I0
sg5
I273
sg6
I0
sg7
VEvery Shark Tank Product
p129
sg9
g127
ssVRoot Suit Pitch (Shark Tank Season 4 Episode 21)
p130
g2
(tRp131
g4
I1
sg5
I531
sg6
I0
sg7
VEvery Shark Tank Product
p132
sg9
g130
ssVThe Coop Pitch (Shark Tank Season 4 Episode 11)
p133
g2
(tRp134
g4
I0
sg5
I714
sg6
I0
sg7
VEvery Shark Tank Product
p135
sg9
g133
ssVThe Bev Buckle Pitch (Shark Tank - Season 4 Episode 1)
p136
g2
(tRp137
g4
I0
sg5
I2521
sg6
I3
sg7
VEvery Shark Tank Product
p138
sg9
g136
ssVRuckpack - Energy Shot Pitch (Shark Tank Season 4 Episode 10)
p139
g2
(tRp140
g4
I0
sg5
I750
sg6
I0
sg7
VEvery Shark Tank Product
p141
sg9
g139
ssVBag Bowl Pitch (Shark Tank Season 4 Episode 4)
p142
g2
(tRp143
g4
I1
sg5
I954
sg6
I3
sg7
VEvery Shark Tank Product
p144
sg9
g142
ssVShark Tank eCreamery Pitch (Season 4 Episode 2)
p145
g2
(tRp146
g4
I0
sg5
I854
sg6
I1
sg7
VEvery Shark Tank Product
p147
sg9
g145
ssVTom + Chee Pitch (Shark Tank Season 4 Episode 26)
p148
g2
(tRp149
g4
I0
sg5
I4551
sg6
I6
sg7
VEvery Shark Tank Product
p150
sg9
g148
ssVMission Belt (Shark Tank Season 4 Episode 23)
p151
g2
(tRp152
g4
I3
sg5
I5464
sg6
I3
sg7
VEvery Shark Tank Product
p153
sg9
g151
ssVCoffee Joulies Pitch (Shark Tank Season 4 Episode 13)
p154
g2
(tRp155
g4
I1
sg5
I3017
sg6
I4
sg7
VEvery Shark Tank Product
p156
sg9
g154
ssVThree Day Rule Pitch (Shark Tank Season 4 Episode 26)
p157
g2
(tRp158
g4
I0
sg5
I568
sg6
I1
sg7
VEvery Shark Tank Product
p159
sg9
g157
ssVLiving Christmas Pitch (Shark Tank Season 4 Episode 11)
p160
g2
(tRp161
g4
I0
sg5
I913
sg6
I1
sg7
VEvery Shark Tank Product
p162
sg9
g160
ssVTie Try Pitch (Shark Tank Season 4 Episode 10)
p163
g2
(tRp164
g4
I0
sg5
I279
sg6
I0
sg7
VEvery Shark Tank Product
p165
sg9
g163
ssVCool Wazoo Pitch (Shark Tank Season 4 Episode 8)
p166
g2
(tRp167
g4
I0
sg5
I666
sg6
I0
sg7
VEvery Shark Tank Product
p168
sg9
g166
ssVKazam Pitch (Shark Tank Season 4 Episode 25)
p169
g2
(tRp170
g4
I0
sg5
I681
sg6
I0
sg7
VEvery Shark Tank Product
p171
sg9
g169
ssVShark Tank Alpha M Pitch (Season 4 Episode 2)
p172
g2
(tRp173
g4
I16
sg5
I187519
sg6
I1073
sg7
VEvery Shark Tank Product
p174
sg9
g172
ssVSoundbender Pitch (Shark Tank Season 4 Episode 1)
p175
g2
(tRp176
g4
I0
sg5
I1182
sg6
I3
sg7
VEvery Shark Tank Product
p177
sg9
g175
ssVLose 12 Inches With Any 12 Workouts Pitch (Shark Tank Season 4 Episode 1)9
p178
g2
(tRp179
g4
I0
sg5
I295
sg6
I1
sg7
VEvery Shark Tank Product
p180
sg9
g178
ssVNearly Newlyweds Pitch (Shark Tank Season 4 Episode 10)
p181
g2
(tRp182
g4
I0
sg5
I248
sg6
I0
sg7
VEvery Shark Tank Product
p183
sg9
g181
ssVFreaker USA Pitch (Shark Tank Season 4 Episode 6)
p184
g2
(tRp185
g4
I2
sg5
I5178
sg6
I6
sg7
VEvery Shark Tank Product
p186
sg9
g184
ssVThe Liz Lovely Pitch (Shark Tank Season 4 Episode 3)
p187
g2
(tRp188
g4
I0
sg5
I255
sg6
I1
sg7
VEvery Shark Tank Product
p189
sg9
g187
ssVHoodie Pillow Pitch (Shark Tank Season 4 Episode 15)
p190
g2
(tRp191
g4
I0
sg5
I2024
sg6
I0
sg7
VEvery Shark Tank Product
p192
sg9
g190
ssVCozy Bugs Pitch (Shark Tank Season 4 Episode 5)
p193
g2
(tRp194
g4
I0
sg5
I547
sg6
I1
sg7
VEvery Shark Tank Product
p195
sg9
g193
ssVCousins Maine Lobster Pitch (Shark Tank Season 4 Episode 6)
p196
g2
(tRp197
g4
I2
sg5
I6132
sg6
I8
sg7
VEvery Shark Tank Product
p198
sg9
g196
ssVIce Chips Pitch (Shark Tank Season 4 Episode 9)
p199
g2
(tRp200
g4
I0
sg5
I452
sg6
I0
sg7
VEvery Shark Tank Product
p201
sg9
g199
ssVThe Green Garmento Pitch (Shark Tank Season 4 Episode 15)
p202
g2
(tRp203
g4
I0
sg5
I142
sg6
I0
sg7
VEvery Shark Tank Product
p204
sg9
g202
ssVSub Zero Ice Cream Pitch (Shark Tank Season 4 Episode 13)
p205
g2
(tRp206
g4
I1
sg5
I2556
sg6
I2
sg7
VEvery Shark Tank Product
p207
sg9
g205
ssVSquirrel Boss Pitch (Shark Tank Season 4 Episode 24)
p208
g2
(tRp209
g4
I0
sg5
I4713
sg6
I15
sg7
VEvery Shark Tank Product
p210
sg9
g208
ssVMuddy Waters Camo Pitch (Shark Tank Season 4 Episode 17)
p211
g2
(tRp212
g4
I1
sg5
I251
sg6
I0
sg7
VEvery Shark Tank Product
p213
sg9
g211
ssVCoatchex Pitch (From Shark Tank Season 4 Episode 1)
p214
g2
(tRp215
g4
I1
sg5
I4396
sg6
I3
sg7
VEvery Shark Tank Product
p216
sg9
g214
ssVUrbio Pitch (Shark Tank Season 4 Episode 13)
p217
g2
(tRp218
g4
I0
sg5
I565
sg6
I0
sg7
VEvery Shark Tank Product
p219
sg9
g217
ssVNo Fly Cone Pitch (Shark Tank Season 4 Episode 8)
p220
g2
(tRp221
g4
I0
sg5
I861
sg6
I0
sg7
VEvery Shark Tank Product
p222
sg9
g220
ssVPsibands Pitch (Shark Tank Season 4 Episode 18)
p223
g2
(tRp224
g4
I0
sg5
I489
sg6
I1
sg7
VEvery Shark Tank Product
p225
sg9
g223
ssVVermont Butcher Blocks Pitch (Shark Tank Season 4 Episode 24)
p226
g2
(tRp227
g4
I0
sg5
I147
sg6
I0
sg7
VEvery Shark Tank Product
p228
sg9
g226
ss.